---
triple:          'arm64-apple-darwin'
binary-path:     solver_pool_debug
relocations:
  - { offsetInCU: 0x35B3C, offset: 0x35B3C, size: 0x8, addend: 0x0, symName: __ZStL8__ioinit, symObjAddr: 0x15A608, symBinAddr: 0x100040010, symSize: 0x0 }
  - { offsetInCU: 0x361A3, offset: 0x361A3, size: 0x8, addend: 0x0, symName: _verbose_level, symObjAddr: 0x24180, symBinAddr: 0x100040000, symSize: 0x0 }
  - { offsetInCU: 0x361B1, offset: 0x361B1, size: 0x8, addend: 0x0, symName: __ZL4maxN, symObjAddr: 0x24190, symBinAddr: 0x100029418, symSize: 0x0 }
  - { offsetInCU: 0x361C8, offset: 0x361C8, size: 0x8, addend: 0x0, symName: __ZL4maxT, symObjAddr: 0x24194, symBinAddr: 0x10002941C, symSize: 0x0 }
  - { offsetInCU: 0x361DE, offset: 0x361DE, size: 0x8, addend: 0x0, symName: __ZL3EPS, symObjAddr: 0x24198, symBinAddr: 0x100029420, symSize: 0x0 }
  - { offsetInCU: 0x361F3, offset: 0x361F3, size: 0x8, addend: 0x0, symName: _n, symObjAddr: 0x15A610, symBinAddr: 0x100040018, symSize: 0x0 }
  - { offsetInCU: 0x36216, offset: 0x36216, size: 0x8, addend: 0x0, symName: _w, symObjAddr: 0x15A614, symBinAddr: 0x10004001C, symSize: 0x0 }
  - { offsetInCU: 0x3622E, offset: 0x3622E, size: 0x8, addend: 0x0, symName: _ha, symObjAddr: 0x15AA04, symBinAddr: 0x10004040C, symSize: 0x0 }
  - { offsetInCU: 0x36244, offset: 0x36244, size: 0x8, addend: 0x0, symName: _p, symObjAddr: 0x15ADF4, symBinAddr: 0x1000407FC, symSize: 0x0 }
  - { offsetInCU: 0x3625B, offset: 0x3625B, size: 0x8, addend: 0x0, symName: _d, symObjAddr: 0x15B1E4, symBinAddr: 0x100040BEC, symSize: 0x0 }
  - { offsetInCU: 0x3627F, offset: 0x3627F, size: 0x8, addend: 0x0, symName: _UB, symObjAddr: 0x15B5D8, symBinAddr: 0x100040FE0, symSize: 0x0 }
  - { offsetInCU: 0x3629A, offset: 0x3629A, size: 0x8, addend: 0x0, symName: _UB_sol, symObjAddr: 0x15B5E0, symBinAddr: 0x100040FE8, symSize: 0x0 }
  - { offsetInCU: 0x362AF, offset: 0x362AF, size: 0x8, addend: 0x0, symName: _nids, symObjAddr: 0x15B5F8, symBinAddr: 0x100041000, symSize: 0x0 }
  - { offsetInCU: 0x362D2, offset: 0x362D2, size: 0x8, addend: 0x0, symName: _pt, symObjAddr: 0x15B5FC, symBinAddr: 0x100041004, symSize: 0x0 }
  - { offsetInCU: 0x362E8, offset: 0x362E8, size: 0x8, addend: 0x0, symName: _T, symObjAddr: 0x15BAD4, symBinAddr: 0x1000414DC, symSize: 0x0 }
  - { offsetInCU: 0x36301, offset: 0x36301, size: 0x8, addend: 0x0, symName: _gmu, symObjAddr: 0x15BAD8, symBinAddr: 0x1000414E0, symSize: 0x0 }
  - { offsetInCU: 0x3631C, offset: 0x3631C, size: 0x8, addend: 0x0, symName: _n_edges, symObjAddr: 0x15BAF0, symBinAddr: 0x1000414F8, symSize: 0x0 }
  - { offsetInCU: 0x36468, offset: 0x36468, size: 0x8, addend: 0x0, symName: _select_ids, symObjAddr: 0x15BAF8, symBinAddr: 0x100041500, symSize: 0x0 }
  - { offsetInCU: 0x36476, offset: 0x36476, size: 0x8, addend: 0x0, symName: __ZL1B, symObjAddr: 0x241A0, symBinAddr: 0x100029428, symSize: 0x0 }
  - { offsetInCU: 0x36A38, offset: 0x36A38, size: 0x8, addend: 0x0, symName: _nodePool, symObjAddr: 0x15BB28, symBinAddr: 0x100041530, symSize: 0x0 }
  - { offsetInCU: 0x36A57, offset: 0x36A57, size: 0x8, addend: 0x0, symName: _at, symObjAddr: 0x15BB68, symBinAddr: 0x100041570, symSize: 0x0 }
  - { offsetInCU: 0x36A70, offset: 0x36A70, size: 0x8, addend: 0x0, symName: _root, symObjAddr: 0x1DCA60, symBinAddr: 0x1000C2468, symSize: 0x0 }
  - { offsetInCU: 0x36A88, offset: 0x36A88, size: 0x8, addend: 0x0, symName: _broot, symObjAddr: 0x1DCA68, symBinAddr: 0x1000C2470, symSize: 0x0 }
  - { offsetInCU: 0x36A9D, offset: 0x36A9D, size: 0x8, addend: 0x0, symName: _ids, symObjAddr: 0x1DCA70, symBinAddr: 0x1000C2478, symSize: 0x0 }
  - { offsetInCU: 0x36AB3, offset: 0x36AB3, size: 0x8, addend: 0x0, symName: _od, symObjAddr: 0x1DCA88, symBinAddr: 0x1000C2490, symSize: 0x0 }
  - { offsetInCU: 0x36ADE, offset: 0x36ADE, size: 0x8, addend: 0x0, symName: _h1, symObjAddr: 0x1DCE78, symBinAddr: 0x1000C2880, symSize: 0x0 }
  - { offsetInCU: 0x36AF5, offset: 0x36AF5, size: 0x8, addend: 0x0, symName: _H1, symObjAddr: 0x2C2B7D8, symBinAddr: 0x102B111E0, symSize: 0x0 }
  - { offsetInCU: 0x36D9E, offset: 0x36D9E, size: 0x8, addend: 0x0, symName: _rng, symObjAddr: 0x567A138, symBinAddr: 0x10555FB40, symSize: 0x0 }
  - { offsetInCU: 0x37153, offset: 0x37153, size: 0x8, addend: 0x0, symName: _dnorm, symObjAddr: 0x24188, symBinAddr: 0x100040008, symSize: 0x0 }
  - { offsetInCU: 0x37168, offset: 0x37168, size: 0x8, addend: 0x0, symName: _du, symObjAddr: 0x567AB00, symBinAddr: 0x105560508, symSize: 0x0 }
  - { offsetInCU: 0x37BE5, offset: 0x37BE5, size: 0x8, addend: 0x0, symName: ___tcf_0, symObjAddr: 0x222C8, symBinAddr: 0x100023EA0, symSize: 0x44 }
  - { offsetInCU: 0x37C46, offset: 0x37C46, size: 0x8, addend: 0x0, symName: __ZNSt3setIiSt4lessIiESaIiEED1Ev, symObjAddr: 0x222A8, symBinAddr: 0x100023E80, symSize: 0x20 }
  - { offsetInCU: 0x37C4C, offset: 0x37C4C, size: 0x8, addend: 0x0, symName: __ZNSt11__copy_moveILb0ELb0ESt26random_access_iterator_tagE12__assign_oneIxKxEEvPT_PT0_, symObjAddr: 0x22280, symBinAddr: 0x100023E58, symSize: 0x28 }
  - { offsetInCU: 0x37C99, offset: 0x37C99, size: 0x8, addend: 0x0, symName: __ZNSt11__copy_moveILb0ELb1ESt26random_access_iterator_tagE8__copy_mIKxxEEPT0_PT_S7_S5_, symObjAddr: 0x221F0, symBinAddr: 0x100023DC8, symSize: 0x90 }
  - { offsetInCU: 0x37D08, offset: 0x37D08, size: 0x8, addend: 0x0, symName: __ZSt14__copy_move_a2ILb0EPKxPxET1_T0_S4_S3_, symObjAddr: 0x221C4, symBinAddr: 0x100023D9C, symSize: 0x2C }
  - { offsetInCU: 0x37D74, offset: 0x37D74, size: 0x8, addend: 0x0, symName: __ZNK9__gnu_cxx17__normal_iteratorIPKxSt6vectorIxSaIxEEE4baseEv, symObjAddr: 0x221B0, symBinAddr: 0x100023D88, symSize: 0x14 }
  - { offsetInCU: 0x37D9A, offset: 0x37D9A, size: 0x8, addend: 0x0, symName: __ZSt12__niter_wrapIPxET_RKS1_S1_, symObjAddr: 0x22198, symBinAddr: 0x100023D70, symSize: 0x18 }
  - { offsetInCU: 0x37DD6, offset: 0x37DD6, size: 0x8, addend: 0x0, symName: __ZSt14__copy_move_a1ILb0EPKxPxET1_T0_S4_S3_, symObjAddr: 0x2216C, symBinAddr: 0x100023D44, symSize: 0x2C }
  - { offsetInCU: 0x37E3E, offset: 0x37E3E, size: 0x8, addend: 0x0, symName: __ZSt12__niter_baseIPxET_S1_, symObjAddr: 0x22158, symBinAddr: 0x100023D30, symSize: 0x14 }
  - { offsetInCU: 0x37E71, offset: 0x37E71, size: 0x8, addend: 0x0, symName: __ZSt12__niter_baseIPKxSt6vectorIxSaIxEEET_N9__gnu_cxx17__normal_iteratorIS5_T0_EE, symObjAddr: 0x22138, symBinAddr: 0x100023D10, symSize: 0x20 }
  - { offsetInCU: 0x37EAD, offset: 0x37EAD, size: 0x8, addend: 0x0, symName: __ZSt13__copy_move_aILb0EN9__gnu_cxx17__normal_iteratorIPKxSt6vectorIxSaIxEEEEPxET1_T0_SA_S9_, symObjAddr: 0x220D8, symBinAddr: 0x100023CB0, symSize: 0x60 }
  - { offsetInCU: 0x37F15, offset: 0x37F15, size: 0x8, addend: 0x0, symName: __ZSt12__miter_baseIN9__gnu_cxx17__normal_iteratorIPKxSt6vectorIxSaIxEEEEET_S8_, symObjAddr: 0x220C4, symBinAddr: 0x100023C9C, symSize: 0x14 }
  - { offsetInCU: 0x37F48, offset: 0x37F48, size: 0x8, addend: 0x0, symName: __ZSt4copyIN9__gnu_cxx17__normal_iteratorIPKxSt6vectorIxSaIxEEEEPxET0_T_SA_S9_, symObjAddr: 0x2207C, symBinAddr: 0x100023C54, symSize: 0x48 }
  - { offsetInCU: 0x37FAA, offset: 0x37FAA, size: 0x8, addend: 0x0, symName: __ZNSt11_Tuple_implILm2EJiEE7_M_swapERS0_, symObjAddr: 0x22038, symBinAddr: 0x100023C10, symSize: 0x44 }
  - { offsetInCU: 0x37FE1, offset: 0x37FE1, size: 0x8, addend: 0x0, symName: __ZNSt11__copy_moveILb1ELb1ESt26random_access_iterator_tagE8__copy_mIddEEPT0_PT_S6_S4_, symObjAddr: 0x21FA8, symBinAddr: 0x100023B80, symSize: 0x90 }
  - { offsetInCU: 0x38050, offset: 0x38050, size: 0x8, addend: 0x0, symName: __ZNSt11__copy_moveILb1ELb1ESt26random_access_iterator_tagE8__copy_mIiiEEPT0_PT_S6_S4_, symObjAddr: 0x21F18, symBinAddr: 0x100023AF0, symSize: 0x90 }
  - { offsetInCU: 0x380BF, offset: 0x380BF, size: 0x8, addend: 0x0, symName: __ZNSt20__uninitialized_copyILb1EE13__uninit_copyIN9__gnu_cxx17__normal_iteratorIPKxSt6vectorIxSaIxEEEEPxEET0_T_SC_SB_, symObjAddr: 0x21EEC, symBinAddr: 0x100023AC4, symSize: 0x2C }
  - { offsetInCU: 0x3811A, offset: 0x3811A, size: 0x8, addend: 0x0, symName: __ZNSt15__tuple_compareISt5tupleIJiiiEES1_Lm3ELm3EE6__lessERKS1_S4_, symObjAddr: 0x21ED4, symBinAddr: 0x100023AAC, symSize: 0x18 }
  - { offsetInCU: 0x38149, offset: 0x38149, size: 0x8, addend: 0x0, symName: __ZNSt11_Tuple_implILm1EJiiEE7_M_swapERS0_, symObjAddr: 0x21E78, symBinAddr: 0x100023A50, symSize: 0x5C }
  - { offsetInCU: 0x38180, offset: 0x38180, size: 0x8, addend: 0x0, symName: __ZNSt11__copy_moveILb0ELb0ESt26random_access_iterator_tagE12__assign_oneImmEEvPT_PT0_, symObjAddr: 0x21E50, symBinAddr: 0x100023A28, symSize: 0x28 }
  - { offsetInCU: 0x381CD, offset: 0x381CD, size: 0x8, addend: 0x0, symName: __ZSt14__copy_move_a2ILb1EPdS0_ET1_T0_S2_S1_, symObjAddr: 0x21E24, symBinAddr: 0x1000239FC, symSize: 0x2C }
  - { offsetInCU: 0x38235, offset: 0x38235, size: 0x8, addend: 0x0, symName: __ZSt14__copy_move_a2ILb1EPiS0_ET1_T0_S2_S1_, symObjAddr: 0x21DF8, symBinAddr: 0x1000239D0, symSize: 0x2C }
  - { offsetInCU: 0x3829D, offset: 0x3829D, size: 0x8, addend: 0x0, symName: __ZNSt11__copy_moveILb0ELb0ESt26random_access_iterator_tagE12__assign_oneIPdS3_EEvPT_PT0_, symObjAddr: 0x21DD0, symBinAddr: 0x1000239A8, symSize: 0x28 }
  - { offsetInCU: 0x382EA, offset: 0x382EA, size: 0x8, addend: 0x0, symName: __ZSt18uninitialized_copyIN9__gnu_cxx17__normal_iteratorIPKxSt6vectorIxSaIxEEEEPxET0_T_SA_S9_, symObjAddr: 0x21D94, symBinAddr: 0x10002396C, symSize: 0x3C }
  - { offsetInCU: 0x383CC, offset: 0x383CC, size: 0x8, addend: 0x0, symName: __ZN9__gnu_cxx17__normal_iteratorIPKxSt6vectorIxSaIxEEEC1ERKS2_, symObjAddr: 0x21D6C, symBinAddr: 0x100023944, symSize: 0x28 }
  - { offsetInCU: 0x383D2, offset: 0x383D2, size: 0x8, addend: 0x0, symName: __ZNSt20__copy_move_backwardILb1ELb0ESt26random_access_iterator_tagE13__copy_move_bIPSt5tupleIJiiiEES5_EET0_T_S7_S6_, symObjAddr: 0x21CE4, symBinAddr: 0x1000238BC, symSize: 0x88 }
  - { offsetInCU: 0x38441, offset: 0x38441, size: 0x8, addend: 0x0, symName: __ZNSt15__tuple_compareISt5tupleIJiiiEES1_Lm2ELm3EE6__lessERKS1_S4_, symObjAddr: 0x21C60, symBinAddr: 0x100023838, symSize: 0x84 }
  - { offsetInCU: 0x3847C, offset: 0x3847C, size: 0x8, addend: 0x0, symName: __ZNSt10_Head_baseILm2EiLb0EE7_M_headERKS0_, symObjAddr: 0x21C4C, symBinAddr: 0x100023824, symSize: 0x14 }
  - { offsetInCU: 0x384A5, offset: 0x384A5, size: 0x8, addend: 0x0, symName: __ZNSt11_Tuple_implILm2EJiEE7_M_headERKS0_, symObjAddr: 0x21C30, symBinAddr: 0x100023808, symSize: 0x1C }
  - { offsetInCU: 0x384CF, offset: 0x384CF, size: 0x8, addend: 0x0, symName: __ZSt12__get_helperILm2EiJEERKT0_RKSt11_Tuple_implIXT_EJS0_DpT1_EE, symObjAddr: 0x21C14, symBinAddr: 0x1000237EC, symSize: 0x1C }
  - { offsetInCU: 0x38517, offset: 0x38517, size: 0x8, addend: 0x0, symName: __ZSt3getILm2EJiiiEERKNSt13tuple_elementIXT_ESt5tupleIJDpT0_EEE4typeERKS4_, symObjAddr: 0x21BF8, symBinAddr: 0x1000237D0, symSize: 0x1C }
  - { offsetInCU: 0x38564, offset: 0x38564, size: 0x8, addend: 0x0, symName: __ZNSt11_Tuple_implILm0EJiiiEE7_M_swapERS0_, symObjAddr: 0x21B9C, symBinAddr: 0x100023774, symSize: 0x5C }
  - { offsetInCU: 0x385AB, offset: 0x385AB, size: 0x8, addend: 0x0, symName: __ZNK9__gnu_cxx5__ops14_Iter_less_valclINS_17__normal_iteratorIPSt5tupleIJiiiEESt6vectorIS5_SaIS5_EEEES5_EEbT_RT0_, symObjAddr: 0x21B70, symBinAddr: 0x100023748, symSize: 0x2C }
  - { offsetInCU: 0x38603, offset: 0x38603, size: 0x8, addend: 0x0, symName: __ZNSt11__copy_moveILb0ELb0ESt26random_access_iterator_tagE8__copy_mISt19_Bit_const_iteratorSt13_Bit_iteratorEET0_T_S6_S5_, symObjAddr: 0x21AA0, symBinAddr: 0x100023678, symSize: 0xD0 }
  - { offsetInCU: 0x38694, offset: 0x38694, size: 0x8, addend: 0x0, symName: __ZNSt11__copy_moveILb0ELb1ESt26random_access_iterator_tagE8__copy_mImmEEPT0_PT_S6_S4_, symObjAddr: 0x21A10, symBinAddr: 0x1000235E8, symSize: 0x90 }
  - { offsetInCU: 0x38703, offset: 0x38703, size: 0x8, addend: 0x0, symName: __ZSt14__copy_move_a1ILb1EPdS0_ET1_T0_S2_S1_, symObjAddr: 0x219E4, symBinAddr: 0x1000235BC, symSize: 0x2C }
  - { offsetInCU: 0x3876F, offset: 0x3876F, size: 0x8, addend: 0x0, symName: __ZNKSt13move_iteratorIPdE4baseEv, symObjAddr: 0x219CC, symBinAddr: 0x1000235A4, symSize: 0x18 }
  - { offsetInCU: 0x38795, offset: 0x38795, size: 0x8, addend: 0x0, symName: __ZSt14__copy_move_a1ILb1EPiS0_ET1_T0_S2_S1_, symObjAddr: 0x219A0, symBinAddr: 0x100023578, symSize: 0x2C }
  - { offsetInCU: 0x38801, offset: 0x38801, size: 0x8, addend: 0x0, symName: __ZNKSt13move_iteratorIPiE4baseEv, symObjAddr: 0x21988, symBinAddr: 0x100023560, symSize: 0x18 }
  - { offsetInCU: 0x38827, offset: 0x38827, size: 0x8, addend: 0x0, symName: __ZNSt20__copy_move_backwardILb0ELb1ESt26random_access_iterator_tagE13__copy_move_bIPdS3_EEPT0_PT_S7_S5_, symObjAddr: 0x218DC, symBinAddr: 0x1000234B4, symSize: 0xAC }
  - { offsetInCU: 0x38896, offset: 0x38896, size: 0x8, addend: 0x0, symName: __ZNSt11__copy_moveILb0ELb1ESt26random_access_iterator_tagE8__copy_mIPdS3_EEPT0_PT_S7_S5_, symObjAddr: 0x2184C, symBinAddr: 0x100023424, symSize: 0x90 }
  - { offsetInCU: 0x38905, offset: 0x38905, size: 0x8, addend: 0x0, symName: __ZSt22__uninitialized_copy_aIN9__gnu_cxx17__normal_iteratorIPKxSt6vectorIxSaIxEEEEPxxET0_T_SA_S9_RSaIT1_E, symObjAddr: 0x2181C, symBinAddr: 0x1000233F4, symSize: 0x30 }
  - { offsetInCU: 0x38979, offset: 0x38979, size: 0x8, addend: 0x0, symName: __ZNKSt6vectorIxSaIxEE3endEv, symObjAddr: 0x217F4, symBinAddr: 0x1000233CC, symSize: 0x28 }
  - { offsetInCU: 0x389A3, offset: 0x389A3, size: 0x8, addend: 0x0, symName: __ZNKSt6vectorIxSaIxEE5beginEv, symObjAddr: 0x217D0, symBinAddr: 0x1000233A8, symSize: 0x24 }
  - { offsetInCU: 0x389E2, offset: 0x389E2, size: 0x8, addend: 0x0, symName: __ZNKSt12_Vector_baseIxSaIxEE19_M_get_Tp_allocatorEv, symObjAddr: 0x217BC, symBinAddr: 0x100023394, symSize: 0x14 }
  - { offsetInCU: 0x38A08, offset: 0x38A08, size: 0x8, addend: 0x0, symName: __ZSt9__fill_a1IPxxEN9__gnu_cxx11__enable_ifIXsrSt11__is_scalarIT0_E7__valueEvE6__typeET_S8_RKS4_, symObjAddr: 0x21764, symBinAddr: 0x10002333C, symSize: 0x58 }
  - { offsetInCU: 0x38A7B, offset: 0x38A7B, size: 0x8, addend: 0x0, symName: __ZN9__gnu_cxx5__ops14_Iter_comp_valIZ30shortest_processing_time_ordervEUliiE_EclINS_17__normal_iteratorIPiSt6vectorIiSaIiEEEEiEEbT_RT0_, symObjAddr: 0x2171C, symBinAddr: 0x1000232F4, symSize: 0x48 }
  - { offsetInCU: 0x38AD7, offset: 0x38AD7, size: 0x8, addend: 0x0, symName: __ZN9__gnu_cxx5__ops14_Iter_comp_valIZ15greedy_backwardvEUliiE_EclINS_17__normal_iteratorIPiSt6vectorIiSaIiEEEEiEEbT_RT0_, symObjAddr: 0x216D4, symBinAddr: 0x1000232AC, symSize: 0x48 }
  - { offsetInCU: 0x38B33, offset: 0x38B33, size: 0x8, addend: 0x0, symName: __ZN9__gnu_cxx5__ops14_Iter_comp_valIZ15greedy_fordwardvEUliiE_EclINS_17__normal_iteratorIPiSt6vectorIiSaIiEEEEiEEbT_RT0_, symObjAddr: 0x2168C, symBinAddr: 0x100023264, symSize: 0x48 }
  - { offsetInCU: 0x38B8B, offset: 0x38B8B, size: 0x8, addend: 0x0, symName: __ZSt9__fill_a1IPyyEN9__gnu_cxx11__enable_ifIXsrSt11__is_scalarIT0_E7__valueEvE6__typeET_S8_RKS4_, symObjAddr: 0x21634, symBinAddr: 0x10002320C, symSize: 0x58 }
  - { offsetInCU: 0x38BFE, offset: 0x38BFE, size: 0x8, addend: 0x0, symName: __ZNSt11_Tuple_implILm2EJiEE9_M_assignIiEEvOS_ILm2EJT_EE, symObjAddr: 0x215F4, symBinAddr: 0x1000231CC, symSize: 0x40 }
  - { offsetInCU: 0x38C45, offset: 0x38C45, size: 0x8, addend: 0x0, symName: __ZSt4moveIRSt11_Tuple_implILm2EJiEEEONSt16remove_referenceIT_E4typeEOS4_, symObjAddr: 0x215E0, symBinAddr: 0x1000231B8, symSize: 0x14 }
  - { offsetInCU: 0x38C77, offset: 0x38C77, size: 0x8, addend: 0x0, symName: __ZNSt11_Tuple_implILm1EJiiEE7_M_tailERS0_, symObjAddr: 0x215CC, symBinAddr: 0x1000231A4, symSize: 0x14 }
  - { offsetInCU: 0x38CA1, offset: 0x38CA1, size: 0x8, addend: 0x0, symName: __ZSt23__copy_move_backward_a2ILb1EPSt5tupleIJiiiEES2_ET1_T0_S4_S3_, symObjAddr: 0x215A0, symBinAddr: 0x100023178, symSize: 0x2C }
  - { offsetInCU: 0x38D09, offset: 0x38D09, size: 0x8, addend: 0x0, symName: __ZNSt15__tuple_compareISt5tupleIJiiiEES1_Lm1ELm3EE6__lessERKS1_S4_, symObjAddr: 0x2151C, symBinAddr: 0x1000230F4, symSize: 0x84 }
  - { offsetInCU: 0x38D44, offset: 0x38D44, size: 0x8, addend: 0x0, symName: __ZNSt10_Head_baseILm1EiLb0EE7_M_headERKS0_, symObjAddr: 0x21508, symBinAddr: 0x1000230E0, symSize: 0x14 }
  - { offsetInCU: 0x38D6D, offset: 0x38D6D, size: 0x8, addend: 0x0, symName: __ZNSt11_Tuple_implILm1EJiiEE7_M_headERKS0_, symObjAddr: 0x214E8, symBinAddr: 0x1000230C0, symSize: 0x20 }
  - { offsetInCU: 0x38D97, offset: 0x38D97, size: 0x8, addend: 0x0, symName: __ZSt12__get_helperILm1EiJiEERKT0_RKSt11_Tuple_implIXT_EJS0_DpT1_EE, symObjAddr: 0x214CC, symBinAddr: 0x1000230A4, symSize: 0x1C }
  - { offsetInCU: 0x38DE5, offset: 0x38DE5, size: 0x8, addend: 0x0, symName: __ZSt3getILm1EJiiiEERKNSt13tuple_elementIXT_ESt5tupleIJDpT0_EEE4typeERKS4_, symObjAddr: 0x214B0, symBinAddr: 0x100023088, symSize: 0x1C }
  - { offsetInCU: 0x38E32, offset: 0x38E32, size: 0x8, addend: 0x0, symName: __ZNSt5tupleIJiiiEE4swapERS0_, symObjAddr: 0x21488, symBinAddr: 0x100023060, symSize: 0x28 }
  - { offsetInCU: 0x38E6F, offset: 0x38E6F, size: 0x8, addend: 0x0, symName: __ZSt11__push_heapIN9__gnu_cxx17__normal_iteratorIPSt5tupleIJiiiEESt6vectorIS3_SaIS3_EEEElS3_NS0_5__ops14_Iter_less_valEEvT_T0_SC_T1_RT2_, symObjAddr: 0x21360, symBinAddr: 0x100022F38, symSize: 0x128 }
  - { offsetInCU: 0x38F1B, offset: 0x38F1B, size: 0x8, addend: 0x0, symName: __ZSt4moveIRN9__gnu_cxx5__ops15_Iter_less_iterEEONSt16remove_referenceIT_E4typeEOS5_, symObjAddr: 0x2134C, symBinAddr: 0x100022F24, symSize: 0x14 }
  - { offsetInCU: 0x38FC1, offset: 0x38FC1, size: 0x8, addend: 0x0, symName: __ZSt7forwardISt5tupleIJiiiEEEOT_RNSt16remove_referenceIS2_E4typeE, symObjAddr: 0x21338, symBinAddr: 0x100022F10, symSize: 0x14 }
  - { offsetInCU: 0x3904A, offset: 0x3904A, size: 0x8, addend: 0x0, symName: __ZNSt10_Head_baseILm2EiLb0EEC2IRiEEOT_, symObjAddr: 0x21308, symBinAddr: 0x100022EE0, symSize: 0x30 }
  - { offsetInCU: 0x3905B, offset: 0x3905B, size: 0x8, addend: 0x0, symName: __ZNSt11__copy_moveILb0ELb0ESt26random_access_iterator_tagE8__copy_mISt13_Bit_iteratorS3_EET0_T_S5_S4_, symObjAddr: 0x21240, symBinAddr: 0x100022E18, symSize: 0xC8 }
  - { offsetInCU: 0x390ED, offset: 0x390ED, size: 0x8, addend: 0x0, symName: __ZSt14__copy_move_a2ILb0ESt19_Bit_const_iteratorSt13_Bit_iteratorET1_T0_S3_S2_, symObjAddr: 0x211C0, symBinAddr: 0x100022D98, symSize: 0x80 }
  - { offsetInCU: 0x39155, offset: 0x39155, size: 0x8, addend: 0x0, symName: __ZSt14__copy_move_a2ILb0EPmS0_ET1_T0_S2_S1_, symObjAddr: 0x21194, symBinAddr: 0x100022D6C, symSize: 0x2C }
  - { offsetInCU: 0x391BD, offset: 0x391BD, size: 0x8, addend: 0x0, symName: __ZNSt20__copy_move_backwardILb0ELb0ESt26random_access_iterator_tagE13__copy_move_bISt13_Bit_iteratorS3_EET0_T_S5_S4_, symObjAddr: 0x210D4, symBinAddr: 0x100022CAC, symSize: 0xC0 }
  - { offsetInCU: 0x3922F, offset: 0x3922F, size: 0x8, addend: 0x0, symName: __ZNSt11__copy_moveILb1ELb0ESt26random_access_iterator_tagE12__assign_oneIddEEvPT_PT0_, symObjAddr: 0x210A4, symBinAddr: 0x100022C7C, symSize: 0x30 }
  - { offsetInCU: 0x3927C, offset: 0x3927C, size: 0x8, addend: 0x0, symName: __ZSt13__copy_move_aILb1EPdS0_ET1_T0_S2_S1_, symObjAddr: 0x21044, symBinAddr: 0x100022C1C, symSize: 0x60 }
  - { offsetInCU: 0x392E4, offset: 0x392E4, size: 0x8, addend: 0x0, symName: __ZSt12__miter_baseIPdEDTcl12__miter_basecldtfp_4baseEEESt13move_iteratorIT_E, symObjAddr: 0x21024, symBinAddr: 0x100022BFC, symSize: 0x20 }
  - { offsetInCU: 0x39317, offset: 0x39317, size: 0x8, addend: 0x0, symName: __ZNSt11__copy_moveILb1ELb0ESt26random_access_iterator_tagE12__assign_oneIiiEEvPT_PT0_, symObjAddr: 0x20FF4, symBinAddr: 0x100022BCC, symSize: 0x30 }
  - { offsetInCU: 0x39364, offset: 0x39364, size: 0x8, addend: 0x0, symName: __ZSt13__copy_move_aILb1EPiS0_ET1_T0_S2_S1_, symObjAddr: 0x20F94, symBinAddr: 0x100022B6C, symSize: 0x60 }
  - { offsetInCU: 0x393CC, offset: 0x393CC, size: 0x8, addend: 0x0, symName: __ZSt12__miter_baseIPiEDTcl12__miter_basecldtfp_4baseEEESt13move_iteratorIT_E, symObjAddr: 0x20F74, symBinAddr: 0x100022B4C, symSize: 0x20 }
  - { offsetInCU: 0x393FF, offset: 0x393FF, size: 0x8, addend: 0x0, symName: __ZSt23__copy_move_backward_a2ILb0EPPdS1_ET1_T0_S3_S2_, symObjAddr: 0x20F48, symBinAddr: 0x100022B20, symSize: 0x2C }
  - { offsetInCU: 0x39467, offset: 0x39467, size: 0x8, addend: 0x0, symName: __ZSt14__copy_move_a2ILb0EPPdS1_ET1_T0_S3_S2_, symObjAddr: 0x20F1C, symBinAddr: 0x100022AF4, symSize: 0x2C }
  - { offsetInCU: 0x394D5, offset: 0x394D5, size: 0x8, addend: 0x0, symName: __ZSt7forwardIRKSt4pairIiiEEOT_RNSt16remove_referenceIS4_E4typeE, symObjAddr: 0x20F08, symBinAddr: 0x100022AE0, symSize: 0x14 }
  - { offsetInCU: 0x3954C, offset: 0x3954C, size: 0x8, addend: 0x0, symName: __ZNSt6vectorIxSaIxEEC1ERKS1_, symObjAddr: 0x20DF4, symBinAddr: 0x1000229CC, symSize: 0x114 }
  - { offsetInCU: 0x39648, offset: 0x39648, size: 0x8, addend: 0x0, symName: __ZSt7forwardIRKSt6vectorIxSaIxEEEOT_RNSt16remove_referenceIS5_E4typeE, symObjAddr: 0x20DE0, symBinAddr: 0x1000229B8, symSize: 0x14 }
  - { offsetInCU: 0x3967A, offset: 0x3967A, size: 0x8, addend: 0x0, symName: __ZSt8__fill_aIPxxEvT_S1_RKT0_, symObjAddr: 0x20DB0, symBinAddr: 0x100022988, symSize: 0x30 }
  - { offsetInCU: 0x396DE, offset: 0x396DE, size: 0x8, addend: 0x0, symName: __ZSt7forwardIRKSt6vectorIiSaIiEEEOT_RNSt16remove_referenceIS5_E4typeE, symObjAddr: 0x20D9C, symBinAddr: 0x100022974, symSize: 0x14 }
  - { offsetInCU: 0x39716, offset: 0x39716, size: 0x8, addend: 0x0, symName: __ZSt11__push_heapIN9__gnu_cxx17__normal_iteratorIPiSt6vectorIiSaIiEEEEliNS0_5__ops14_Iter_comp_valIZ30shortest_processing_time_ordervEUliiE_EEEvT_T0_SC_T1_RT2_, symObjAddr: 0x20C78, symBinAddr: 0x100022850, symSize: 0x124 }
  - { offsetInCU: 0x397DC, offset: 0x397DC, size: 0x8, addend: 0x0, symName: __ZN9__gnu_cxx5__ops14_Iter_comp_valIZ30shortest_processing_time_ordervEUliiE_EC1EONS0_15_Iter_comp_iterIS2_EE, symObjAddr: 0x20C54, symBinAddr: 0x10002282C, symSize: 0x24 }
  - { offsetInCU: 0x3980C, offset: 0x3980C, size: 0x8, addend: 0x0, symName: __ZSt11__push_heapIN9__gnu_cxx17__normal_iteratorIPiSt6vectorIiSaIiEEEEliNS0_5__ops14_Iter_comp_valIZ15greedy_backwardvEUliiE_EEEvT_T0_SC_T1_RT2_, symObjAddr: 0x20B30, symBinAddr: 0x100022708, symSize: 0x124 }
  - { offsetInCU: 0x398D2, offset: 0x398D2, size: 0x8, addend: 0x0, symName: __ZN9__gnu_cxx5__ops14_Iter_comp_valIZ15greedy_backwardvEUliiE_EC1EONS0_15_Iter_comp_iterIS2_EE, symObjAddr: 0x20B0C, symBinAddr: 0x1000226E4, symSize: 0x24 }
  - { offsetInCU: 0x39902, offset: 0x39902, size: 0x8, addend: 0x0, symName: __ZSt11__push_heapIN9__gnu_cxx17__normal_iteratorIPiSt6vectorIiSaIiEEEEliNS0_5__ops14_Iter_comp_valIZ15greedy_fordwardvEUliiE_EEEvT_T0_SC_T1_RT2_, symObjAddr: 0x209E8, symBinAddr: 0x1000225C0, symSize: 0x124 }
  - { offsetInCU: 0x399C8, offset: 0x399C8, size: 0x8, addend: 0x0, symName: __ZN9__gnu_cxx5__ops14_Iter_comp_valIZ15greedy_fordwardvEUliiE_EC1EONS0_15_Iter_comp_iterIS2_EE, symObjAddr: 0x209C4, symBinAddr: 0x10002259C, symSize: 0x24 }
  - { offsetInCU: 0x399F2, offset: 0x399F2, size: 0x8, addend: 0x0, symName: __ZSt8__fill_aIPyyEvT_S1_RKT0_, symObjAddr: 0x20994, symBinAddr: 0x10002256C, symSize: 0x30 }
  - { offsetInCU: 0x39A54, offset: 0x39A54, size: 0x8, addend: 0x0, symName: __ZNSt11_Tuple_implILm1EJiiEE9_M_assignIiJiEEEvOS_ILm1EJT_DpT0_EE, symObjAddr: 0x20930, symBinAddr: 0x100022508, symSize: 0x64 }
  - { offsetInCU: 0x39AA6, offset: 0x39AA6, size: 0x8, addend: 0x0, symName: __ZSt4moveIRSt11_Tuple_implILm1EJiiEEEONSt16remove_referenceIT_E4typeEOS4_, symObjAddr: 0x2091C, symBinAddr: 0x1000224F4, symSize: 0x14 }
  - { offsetInCU: 0x39AD8, offset: 0x39AD8, size: 0x8, addend: 0x0, symName: __ZNSt11_Tuple_implILm0EJiiiEE7_M_tailERS0_, symObjAddr: 0x20908, symBinAddr: 0x1000224E0, symSize: 0x14 }
  - { offsetInCU: 0x39B02, offset: 0x39B02, size: 0x8, addend: 0x0, symName: __ZSt12__niter_wrapIN9__gnu_cxx17__normal_iteratorIPSt5tupleIJiiiEESt6vectorIS3_SaIS3_EEEES4_ET_S9_T0_, symObjAddr: 0x208B4, symBinAddr: 0x10002248C, symSize: 0x54 }
  - { offsetInCU: 0x39B4F, offset: 0x39B4F, size: 0x8, addend: 0x0, symName: __ZSt23__copy_move_backward_a1ILb1EPSt5tupleIJiiiEES2_ET1_T0_S4_S3_, symObjAddr: 0x20888, symBinAddr: 0x100022460, symSize: 0x2C }
  - { offsetInCU: 0x39BB7, offset: 0x39BB7, size: 0x8, addend: 0x0, symName: __ZSt12__niter_baseIPSt5tupleIJiiiEESt6vectorIS1_SaIS1_EEET_N9__gnu_cxx17__normal_iteratorIS6_T0_EE, symObjAddr: 0x20868, symBinAddr: 0x100022440, symSize: 0x20 }
  - { offsetInCU: 0x39BF3, offset: 0x39BF3, size: 0x8, addend: 0x0, symName: __ZNSt15__tuple_compareISt5tupleIJiiiEES1_Lm0ELm3EE6__lessERKS1_S4_, symObjAddr: 0x207E4, symBinAddr: 0x1000223BC, symSize: 0x84 }
  - { offsetInCU: 0x39C2E, offset: 0x39C2E, size: 0x8, addend: 0x0, symName: __ZNSt10_Head_baseILm0EiLb0EE7_M_headERKS0_, symObjAddr: 0x207D0, symBinAddr: 0x1000223A8, symSize: 0x14 }
  - { offsetInCU: 0x39C57, offset: 0x39C57, size: 0x8, addend: 0x0, symName: __ZNSt11_Tuple_implILm0EJiiiEE7_M_headERKS0_, symObjAddr: 0x207B0, symBinAddr: 0x100022388, symSize: 0x20 }
  - { offsetInCU: 0x39C81, offset: 0x39C81, size: 0x8, addend: 0x0, symName: __ZSt12__get_helperILm0EiJiiEERKT0_RKSt11_Tuple_implIXT_EJS0_DpT1_EE, symObjAddr: 0x20794, symBinAddr: 0x10002236C, symSize: 0x1C }
  - { offsetInCU: 0x39CD4, offset: 0x39CD4, size: 0x8, addend: 0x0, symName: __ZSt3getILm0EJiiiEERKNSt13tuple_elementIXT_ESt5tupleIJDpT0_EEE4typeERKS4_, symObjAddr: 0x20778, symBinAddr: 0x100022350, symSize: 0x1C }
  - { offsetInCU: 0x39D1D, offset: 0x39D1D, size: 0x8, addend: 0x0, symName: __ZSt4swapIJiiiEENSt9enable_ifIXsrSt6__and_IJDpSt14__is_swappableIT_EEE5valueEvE4typeERSt5tupleIJDpS3_EESC_, symObjAddr: 0x20750, symBinAddr: 0x100022328, symSize: 0x28 }
  - { offsetInCU: 0x39D6D, offset: 0x39D6D, size: 0x8, addend: 0x0, symName: __ZSt13__adjust_heapIN9__gnu_cxx17__normal_iteratorIPSt5tupleIJiiiEESt6vectorIS3_SaIS3_EEEElS3_NS0_5__ops15_Iter_less_iterEEvT_T0_SC_T1_T2_, symObjAddr: 0x20568, symBinAddr: 0x100022140, symSize: 0x1E8 }
  - { offsetInCU: 0x39F0F, offset: 0x39F0F, size: 0x8, addend: 0x0, symName: __ZNSt10_Head_baseILm1EiLb0EEC2IRiEEOT_, symObjAddr: 0x20538, symBinAddr: 0x100022110, symSize: 0x30 }
  - { offsetInCU: 0x39F77, offset: 0x39F77, size: 0x8, addend: 0x0, symName: __ZNSt11_Tuple_implILm2EJiEEC2IRiEEOT_, symObjAddr: 0x204FC, symBinAddr: 0x1000220D4, symSize: 0x3C }
  - { offsetInCU: 0x39F89, offset: 0x39F89, size: 0x8, addend: 0x0, symName: __ZSt14__copy_move_a2ILb0ESt13_Bit_iteratorS0_ET1_T0_S2_S1_, symObjAddr: 0x2047C, symBinAddr: 0x100022054, symSize: 0x80 }
  - { offsetInCU: 0x39FF1, offset: 0x39FF1, size: 0x8, addend: 0x0, symName: __ZSt14__copy_move_a1ILb0ESt19_Bit_const_iteratorSt13_Bit_iteratorET1_T0_S3_S2_, symObjAddr: 0x203FC, symBinAddr: 0x100021FD4, symSize: 0x80 }
  - { offsetInCU: 0x3A059, offset: 0x3A059, size: 0x8, addend: 0x0, symName: __ZSt12__niter_baseISt19_Bit_const_iteratorET_S1_, symObjAddr: 0x203C0, symBinAddr: 0x100021F98, symSize: 0x3C }
  - { offsetInCU: 0x3A08C, offset: 0x3A08C, size: 0x8, addend: 0x0, symName: __ZSt12__niter_wrapIPmET_RKS1_S1_, symObjAddr: 0x203A8, symBinAddr: 0x100021F80, symSize: 0x18 }
  - { offsetInCU: 0x3A0C8, offset: 0x3A0C8, size: 0x8, addend: 0x0, symName: __ZSt14__copy_move_a1ILb0EPmS0_ET1_T0_S2_S1_, symObjAddr: 0x2037C, symBinAddr: 0x100021F54, symSize: 0x2C }
  - { offsetInCU: 0x3A130, offset: 0x3A130, size: 0x8, addend: 0x0, symName: __ZSt12__niter_baseIPmET_S1_, symObjAddr: 0x20368, symBinAddr: 0x100021F40, symSize: 0x14 }
  - { offsetInCU: 0x3A179, offset: 0x3A179, size: 0x8, addend: 0x0, symName: __ZSt23__copy_move_backward_a2ILb0ESt13_Bit_iteratorS0_ET1_T0_S2_S1_, symObjAddr: 0x202E8, symBinAddr: 0x100021EC0, symSize: 0x80 }
  - { offsetInCU: 0x3A22A, offset: 0x3A22A, size: 0x8, addend: 0x0, symName: __ZNSt13_Bvector_baseISaIbEE13_Bvector_implC1Ev, symObjAddr: 0x202B0, symBinAddr: 0x100021E88, symSize: 0x38 }
  - { offsetInCU: 0x3A268, offset: 0x3A268, size: 0x8, addend: 0x0, symName: __ZNSt20__copy_move_backwardILb1ELb1ESt26random_access_iterator_tagE13__copy_move_bIddEEPT0_PT_S6_S4_, symObjAddr: 0x20204, symBinAddr: 0x100021DDC, symSize: 0xAC }
  - { offsetInCU: 0x3A2D7, offset: 0x3A2D7, size: 0x8, addend: 0x0, symName: __ZSt4copyISt13move_iteratorIPdES1_ET0_T_S4_S3_, symObjAddr: 0x201BC, symBinAddr: 0x100021D94, symSize: 0x48 }
  - { offsetInCU: 0x3A335, offset: 0x3A335, size: 0x8, addend: 0x0, symName: __ZNSt20__copy_move_backwardILb1ELb1ESt26random_access_iterator_tagE13__copy_move_bIiiEEPT0_PT_S6_S4_, symObjAddr: 0x20110, symBinAddr: 0x100021CE8, symSize: 0xAC }
  - { offsetInCU: 0x3A3A4, offset: 0x3A3A4, size: 0x8, addend: 0x0, symName: __ZSt4copyISt13move_iteratorIPiES1_ET0_T_S4_S3_, symObjAddr: 0x200C8, symBinAddr: 0x100021CA0, symSize: 0x48 }
  - { offsetInCU: 0x3A402, offset: 0x3A402, size: 0x8, addend: 0x0, symName: __ZSt23__copy_move_backward_a1ILb0EPPdS1_ET1_T0_S3_S2_, symObjAddr: 0x2009C, symBinAddr: 0x100021C74, symSize: 0x2C }
  - { offsetInCU: 0x3A46A, offset: 0x3A46A, size: 0x8, addend: 0x0, symName: __ZSt12__niter_wrapIPPdET_RKS2_S2_, symObjAddr: 0x20084, symBinAddr: 0x100021C5C, symSize: 0x18 }
  - { offsetInCU: 0x3A4A6, offset: 0x3A4A6, size: 0x8, addend: 0x0, symName: __ZSt14__copy_move_a1ILb0EPPdS1_ET1_T0_S3_S2_, symObjAddr: 0x20058, symBinAddr: 0x100021C30, symSize: 0x2C }
  - { offsetInCU: 0x3A50E, offset: 0x3A50E, size: 0x8, addend: 0x0, symName: __ZSt12__niter_baseIPPdET_S2_, symObjAddr: 0x20044, symBinAddr: 0x100021C1C, symSize: 0x14 }
  - { offsetInCU: 0x3A541, offset: 0x3A541, size: 0x8, addend: 0x0, symName: __ZNSt11__copy_moveILb0ELb0ESt26random_access_iterator_tagE12__assign_oneIddEEvPT_PT0_, symObjAddr: 0x2001C, symBinAddr: 0x100021BF4, symSize: 0x28 }
  - { offsetInCU: 0x3A58E, offset: 0x3A58E, size: 0x8, addend: 0x0, symName: __ZNSt11__copy_moveILb0ELb0ESt26random_access_iterator_tagE12__assign_oneIdKdEEvPT_PT0_, symObjAddr: 0x1FFF4, symBinAddr: 0x100021BCC, symSize: 0x28 }
  - { offsetInCU: 0x3A5DB, offset: 0x3A5DB, size: 0x8, addend: 0x0, symName: __ZSt10__fill_n_aIPdmdET_S1_T0_RKT1_St26random_access_iterator_tag, symObjAddr: 0x1FF90, symBinAddr: 0x100021B68, symSize: 0x64 }
  - { offsetInCU: 0x3A661, offset: 0x3A661, size: 0x8, addend: 0x0, symName: __ZSt10_ConstructISt4pairIiiEJRKS1_EEvPT_DpOT0_, symObjAddr: 0x1FF48, symBinAddr: 0x100021B20, symSize: 0x48 }
  - { offsetInCU: 0x3A6AD, offset: 0x3A6AD, size: 0x8, addend: 0x0, symName: __ZSt11__addressofISt4pairIiiEEPT_RS2_, symObjAddr: 0x1FF34, symBinAddr: 0x100021B0C, symSize: 0x14 }
  - { offsetInCU: 0x3A6DF, offset: 0x3A6DF, size: 0x8, addend: 0x0, symName: __ZSt10_ConstructISt6vectorIxSaIxEEJRKS2_EEvPT_DpOT0_, symObjAddr: 0x1FEB8, symBinAddr: 0x100021A90, symSize: 0x7C }
  - { offsetInCU: 0x3A72B, offset: 0x3A72B, size: 0x8, addend: 0x0, symName: __ZSt10__fill_n_aIPxmxET_S1_T0_RKT1_St26random_access_iterator_tag, symObjAddr: 0x1FE54, symBinAddr: 0x100021A2C, symSize: 0x64 }
  - { offsetInCU: 0x3A7B1, offset: 0x3A7B1, size: 0x8, addend: 0x0, symName: __ZSt10_ConstructISt6vectorIiSaIiEEJRKS2_EEvPT_DpOT0_, symObjAddr: 0x1FDD8, symBinAddr: 0x1000219B0, symSize: 0x7C }
  - { offsetInCU: 0x3A7FD, offset: 0x3A7FD, size: 0x8, addend: 0x0, symName: __ZSt13__adjust_heapIN9__gnu_cxx17__normal_iteratorIPiSt6vectorIiSaIiEEEEliNS0_5__ops15_Iter_comp_iterIZ30shortest_processing_time_ordervEUliiE_EEEvT_T0_SC_T1_T2_, symObjAddr: 0x1FC04, symBinAddr: 0x1000217DC, symSize: 0x1D4 }
  - { offsetInCU: 0x3A8BF, offset: 0x3A8BF, size: 0x8, addend: 0x0, symName: __ZSt13__adjust_heapIN9__gnu_cxx17__normal_iteratorIPiSt6vectorIiSaIiEEEEliNS0_5__ops15_Iter_comp_iterIZ15greedy_backwardvEUliiE_EEEvT_T0_SC_T1_T2_, symObjAddr: 0x1FA30, symBinAddr: 0x100021608, symSize: 0x1D4 }
  - { offsetInCU: 0x3A981, offset: 0x3A981, size: 0x8, addend: 0x0, symName: __ZNSt11__copy_moveILb0ELb0ESt26random_access_iterator_tagE12__assign_oneIiiEEvPT_PT0_, symObjAddr: 0x1FA08, symBinAddr: 0x1000215E0, symSize: 0x28 }
  - { offsetInCU: 0x3A9CE, offset: 0x3A9CE, size: 0x8, addend: 0x0, symName: __ZNSt11__copy_moveILb0ELb0ESt26random_access_iterator_tagE12__assign_oneIiKiEEvPT_PT0_, symObjAddr: 0x1F9E0, symBinAddr: 0x1000215B8, symSize: 0x28 }
  - { offsetInCU: 0x3AA1B, offset: 0x3AA1B, size: 0x8, addend: 0x0, symName: __ZSt13__adjust_heapIN9__gnu_cxx17__normal_iteratorIPiSt6vectorIiSaIiEEEEliNS0_5__ops15_Iter_comp_iterIZ15greedy_fordwardvEUliiE_EEEvT_T0_SC_T1_T2_, symObjAddr: 0x1F80C, symBinAddr: 0x1000213E4, symSize: 0x1D4 }
  - { offsetInCU: 0x3AADD, offset: 0x3AADD, size: 0x8, addend: 0x0, symName: __ZSt10__fill_n_aIPimiET_S1_T0_RKT1_St26random_access_iterator_tag, symObjAddr: 0x1F7A8, symBinAddr: 0x100021380, symSize: 0x64 }
  - { offsetInCU: 0x3AB63, offset: 0x3AB63, size: 0x8, addend: 0x0, symName: __ZSt10__fill_n_aIPymyET_S1_T0_RKT1_St26random_access_iterator_tag, symObjAddr: 0x1F744, symBinAddr: 0x10002131C, symSize: 0x64 }
  - { offsetInCU: 0x3ABF2, offset: 0x3ABF2, size: 0x8, addend: 0x0, symName: __ZN9__gnu_cxx16__aligned_membufIiE7_M_addrEv, symObjAddr: 0x1F730, symBinAddr: 0x100021308, symSize: 0x14 }
  - { offsetInCU: 0x3AC27, offset: 0x3AC27, size: 0x8, addend: 0x0, symName: __ZNK9__gnu_cxx5__ops14_Val_less_iterclISt5tupleIJiiiEENS_17__normal_iteratorIPS4_St6vectorIS4_SaIS4_EEEEEEbRT_T0_, symObjAddr: 0x1F700, symBinAddr: 0x1000212D8, symSize: 0x30 }
  - { offsetInCU: 0x3AC83, offset: 0x3AC83, size: 0x8, addend: 0x0, symName: __ZNSt11_Tuple_implILm0EJiiiEE9_M_assignIiJiiEEEvOS_ILm0EJT_DpT0_EE, symObjAddr: 0x1F69C, symBinAddr: 0x100021274, symSize: 0x64 }
  - { offsetInCU: 0x3ACD3, offset: 0x3ACD3, size: 0x8, addend: 0x0, symName: __ZSt22__copy_move_backward_aILb1EN9__gnu_cxx17__normal_iteratorIPSt5tupleIJiiiEESt6vectorIS3_SaIS3_EEEES8_ET1_T0_SA_S9_, symObjAddr: 0x1F63C, symBinAddr: 0x100021214, symSize: 0x60 }
  - { offsetInCU: 0x3AD3B, offset: 0x3AD3B, size: 0x8, addend: 0x0, symName: __ZSt12__miter_baseIN9__gnu_cxx17__normal_iteratorIPSt5tupleIJiiiEESt6vectorIS3_SaIS3_EEEEET_S9_, symObjAddr: 0x1F628, symBinAddr: 0x100021200, symSize: 0x14 }
  - { offsetInCU: 0x3AD6E, offset: 0x3AD6E, size: 0x8, addend: 0x0, symName: __ZStltIJiiiEJiiiEEbRKSt5tupleIJDpT_EERKS0_IJDpT0_EE, symObjAddr: 0x1F604, symBinAddr: 0x1000211DC, symSize: 0x24 }
  - { offsetInCU: 0x3ADD3, offset: 0x3ADD3, size: 0x8, addend: 0x0, symName: __ZSt9iter_swapIN9__gnu_cxx17__normal_iteratorIPSt5tupleIJiiiEESt6vectorIS3_SaIS3_EEEES8_EvT_T0_, symObjAddr: 0x1F5C0, symBinAddr: 0x100021198, symSize: 0x44 }
  - { offsetInCU: 0x3AE22, offset: 0x3AE22, size: 0x8, addend: 0x0, symName: __ZN9__gnu_cxx17__normal_iteratorIPSt5tupleIJiiiEESt6vectorIS2_SaIS2_EEEmmEv, symObjAddr: 0x1F598, symBinAddr: 0x100021170, symSize: 0x28 }
  - { offsetInCU: 0x3AE48, offset: 0x3AE48, size: 0x8, addend: 0x0, symName: __ZSt10__pop_heapIN9__gnu_cxx17__normal_iteratorIPSt5tupleIJiiiEESt6vectorIS3_SaIS3_EEEENS0_5__ops15_Iter_less_iterEEvT_SB_SB_RT0_, symObjAddr: 0x1F4F4, symBinAddr: 0x1000210CC, symSize: 0xA4 }
  - { offsetInCU: 0x3AEE4, offset: 0x3AEE4, size: 0x8, addend: 0x0, symName: __ZN9__gnu_cxxltIPSt5tupleIJiiiEESt6vectorIS2_SaIS2_EEEEbRKNS_17__normal_iteratorIT_T0_EESC_, symObjAddr: 0x1F4B0, symBinAddr: 0x100021088, symSize: 0x44 }
  - { offsetInCU: 0x3AF31, offset: 0x3AF31, size: 0x8, addend: 0x0, symName: __ZSt11__make_heapIN9__gnu_cxx17__normal_iteratorIPSt5tupleIJiiiEESt6vectorIS3_SaIS3_EEEENS0_5__ops15_Iter_less_iterEEvT_SB_RT0_, symObjAddr: 0x1F3C0, symBinAddr: 0x100020F98, symSize: 0xF0 }
  - { offsetInCU: 0x3AFEB, offset: 0x3AFEB, size: 0x8, addend: 0x0, symName: __ZSt19__relocate_object_aISt5tupleIJiiiEES1_SaIS1_EEvPT_PT0_RT1_, symObjAddr: 0x1F2F8, symBinAddr: 0x100020ED0, symSize: 0xC8 }
  - { offsetInCU: 0x3B11D, offset: 0x3B11D, size: 0x8, addend: 0x0, symName: __ZSt11__addressofISt5tupleIJiiiEEEPT_RS2_, symObjAddr: 0x1F2E4, symBinAddr: 0x100020EBC, symSize: 0x14 }
  - { offsetInCU: 0x3B1BC, offset: 0x3B1BC, size: 0x8, addend: 0x0, symName: __ZNSt10_Head_baseILm0EiLb0EEC2IRiEEOT_, symObjAddr: 0x1F2B4, symBinAddr: 0x100020E8C, symSize: 0x30 }
  - { offsetInCU: 0x3B248, offset: 0x3B248, size: 0x8, addend: 0x0, symName: __ZNSt11_Tuple_implILm1EJiiEEC2IRiJS2_EvEEOT_DpOT0_, symObjAddr: 0x1F258, symBinAddr: 0x100020E30, symSize: 0x5C }
  - { offsetInCU: 0x3B268, offset: 0x3B268, size: 0x8, addend: 0x0, symName: __ZSt14__copy_move_a1ILb0ESt13_Bit_iteratorS0_ET1_T0_S2_S1_, symObjAddr: 0x1F1D8, symBinAddr: 0x100020DB0, symSize: 0x80 }
  - { offsetInCU: 0x3B2D0, offset: 0x3B2D0, size: 0x8, addend: 0x0, symName: __ZSt13__copy_move_aILb0ESt19_Bit_const_iteratorSt13_Bit_iteratorET1_T0_S3_S2_, symObjAddr: 0x1F114, symBinAddr: 0x100020CEC, symSize: 0xC4 }
  - { offsetInCU: 0x3B33B, offset: 0x3B33B, size: 0x8, addend: 0x0, symName: __ZSt12__miter_baseISt19_Bit_const_iteratorET_S1_, symObjAddr: 0x1F0D8, symBinAddr: 0x100020CB0, symSize: 0x3C }
  - { offsetInCU: 0x3B36E, offset: 0x3B36E, size: 0x8, addend: 0x0, symName: __ZSt13__copy_move_aILb0EPmS0_ET1_T0_S2_S1_, symObjAddr: 0x1F078, symBinAddr: 0x100020C50, symSize: 0x60 }
  - { offsetInCU: 0x3B3D6, offset: 0x3B3D6, size: 0x8, addend: 0x0, symName: __ZSt12__miter_baseIPmET_S1_, symObjAddr: 0x1F064, symBinAddr: 0x100020C3C, symSize: 0x14 }
  - { offsetInCU: 0x3B423, offset: 0x3B423, size: 0x8, addend: 0x0, symName: __ZNKSt13_Bvector_baseISaIbEE20_M_get_Bit_allocatorEv, symObjAddr: 0x1F050, symBinAddr: 0x100020C28, symSize: 0x14 }
  - { offsetInCU: 0x3B449, offset: 0x3B449, size: 0x8, addend: 0x0, symName: __ZSt12__niter_wrapISt13_Bit_iteratorET_RKS1_S1_, symObjAddr: 0x1F014, symBinAddr: 0x100020BEC, symSize: 0x3C }
  - { offsetInCU: 0x3B485, offset: 0x3B485, size: 0x8, addend: 0x0, symName: __ZSt23__copy_move_backward_a1ILb0ESt13_Bit_iteratorS0_ET1_T0_S2_S1_, symObjAddr: 0x1EF94, symBinAddr: 0x100020B6C, symSize: 0x80 }
  - { offsetInCU: 0x3B4ED, offset: 0x3B4ED, size: 0x8, addend: 0x0, symName: __ZSt12__niter_baseISt13_Bit_iteratorET_S1_, symObjAddr: 0x1EF58, symBinAddr: 0x100020B30, symSize: 0x3C }
  - { offsetInCU: 0x3B520, offset: 0x3B520, size: 0x8, addend: 0x0, symName: __ZSt10_ConstructISt6vectorIbSaIbEEJEEvPT_DpOT0_, symObjAddr: 0x1EF20, symBinAddr: 0x100020AF8, symSize: 0x38 }
  - { offsetInCU: 0x3B58F, offset: 0x3B58F, size: 0x8, addend: 0x0, symName: __ZNSt6vectorIbSaIbEEC1Ev, symObjAddr: 0x1EF00, symBinAddr: 0x100020AD8, symSize: 0x20 }
  - { offsetInCU: 0x3B5D6, offset: 0x3B5D6, size: 0x8, addend: 0x0, symName: __ZNSt13_Bvector_baseISaIbEEC2Ev, symObjAddr: 0x1EEE0, symBinAddr: 0x100020AB8, symSize: 0x20 }
  - { offsetInCU: 0x3B5E0, offset: 0x3B5E0, size: 0x8, addend: 0x0, symName: __ZNSt15__new_allocatorISt6vectorIbSaIbEEE8allocateEmPKv, symObjAddr: 0x1EE50, symBinAddr: 0x100020A28, symSize: 0x90 }
  - { offsetInCU: 0x3B668, offset: 0x3B668, size: 0x8, addend: 0x0, symName: __ZSt23__copy_move_backward_a2ILb1EPdS0_ET1_T0_S2_S1_, symObjAddr: 0x1EE24, symBinAddr: 0x1000209FC, symSize: 0x2C }
  - { offsetInCU: 0x3B6D0, offset: 0x3B6D0, size: 0x8, addend: 0x0, symName: __ZNSt20__uninitialized_copyILb1EE13__uninit_copyISt13move_iteratorIPdES3_EET0_T_S6_S5_, symObjAddr: 0x1EDF8, symBinAddr: 0x1000209D0, symSize: 0x2C }
  - { offsetInCU: 0x3B72B, offset: 0x3B72B, size: 0x8, addend: 0x0, symName: __ZSt23__copy_move_backward_a2ILb1EPiS0_ET1_T0_S2_S1_, symObjAddr: 0x1EDCC, symBinAddr: 0x1000209A4, symSize: 0x2C }
  - { offsetInCU: 0x3B793, offset: 0x3B793, size: 0x8, addend: 0x0, symName: __ZNSt20__uninitialized_copyILb1EE13__uninit_copyISt13move_iteratorIPiES3_EET0_T_S6_S5_, symObjAddr: 0x1EDA0, symBinAddr: 0x100020978, symSize: 0x2C }
  - { offsetInCU: 0x3B7EE, offset: 0x3B7EE, size: 0x8, addend: 0x0, symName: __ZSt22__copy_move_backward_aILb0EPPdS1_ET1_T0_S3_S2_, symObjAddr: 0x1ED40, symBinAddr: 0x100020918, symSize: 0x60 }
  - { offsetInCU: 0x3B856, offset: 0x3B856, size: 0x8, addend: 0x0, symName: __ZSt13__copy_move_aILb0EPPdS1_ET1_T0_S3_S2_, symObjAddr: 0x1ECE0, symBinAddr: 0x1000208B8, symSize: 0x60 }
  - { offsetInCU: 0x3B8BE, offset: 0x3B8BE, size: 0x8, addend: 0x0, symName: __ZSt12__miter_baseIPPdET_S2_, symObjAddr: 0x1ECCC, symBinAddr: 0x1000208A4, symSize: 0x14 }
  - { offsetInCU: 0x3B8F1, offset: 0x3B8F1, size: 0x8, addend: 0x0, symName: __ZSt13__copy_move_aILb0EN9__gnu_cxx17__normal_iteratorIPKdSt6vectorIdSaIdEEEEPdET1_T0_SA_S9_, symObjAddr: 0x1EC6C, symBinAddr: 0x100020844, symSize: 0x60 }
  - { offsetInCU: 0x3B959, offset: 0x3B959, size: 0x8, addend: 0x0, symName: __ZNSt11__copy_moveILb0ELb1ESt26random_access_iterator_tagE8__copy_mIddEEPT0_PT_S6_S4_, symObjAddr: 0x1EBDC, symBinAddr: 0x1000207B4, symSize: 0x90 }
  - { offsetInCU: 0x3B9C8, offset: 0x3B9C8, size: 0x8, addend: 0x0, symName: __ZNSt11__copy_moveILb0ELb1ESt26random_access_iterator_tagE8__copy_mIKddEEPT0_PT_S7_S5_, symObjAddr: 0x1EB4C, symBinAddr: 0x100020724, symSize: 0x90 }
  - { offsetInCU: 0x3BA37, offset: 0x3BA37, size: 0x8, addend: 0x0, symName: __ZSt6fill_nIPdmdET_S1_T0_RKT1_, symObjAddr: 0x1EB04, symBinAddr: 0x1000206DC, symSize: 0x48 }
  - { offsetInCU: 0x3BABF, offset: 0x3BABF, size: 0x8, addend: 0x0, symName: __ZSt10_ConstructIdJEEvPT_DpOT0_, symObjAddr: 0x1EAD8, symBinAddr: 0x1000206B0, symSize: 0x2C }
  - { offsetInCU: 0x3BAFB, offset: 0x3BAFB, size: 0x8, addend: 0x0, symName: __ZSt18__do_uninit_fill_nIPSt4pairIiiEmS1_ET_S3_T0_RKT1_, symObjAddr: 0x1EA78, symBinAddr: 0x100020650, symSize: 0x60 }
  - { offsetInCU: 0x3BB77, offset: 0x3BB77, size: 0x8, addend: 0x0, symName: __ZNSt15__new_allocatorISt4pairIiiEE8allocateEmPKv, symObjAddr: 0x1E9FC, symBinAddr: 0x1000205D4, symSize: 0x7C }
  - { offsetInCU: 0x3BBFF, offset: 0x3BBFF, size: 0x8, addend: 0x0, symName: __ZSt18__do_uninit_fill_nIPSt6vectorIxSaIxEEmS2_ET_S4_T0_RKT1_, symObjAddr: 0x1E96C, symBinAddr: 0x100020544, symSize: 0x90 }
  - { offsetInCU: 0x3BC7B, offset: 0x3BC7B, size: 0x8, addend: 0x0, symName: __ZNSt15__new_allocatorISt6vectorIxSaIxEEE8allocateEmPKv, symObjAddr: 0x1E8DC, symBinAddr: 0x1000204B4, symSize: 0x90 }
  - { offsetInCU: 0x3BD03, offset: 0x3BD03, size: 0x8, addend: 0x0, symName: __ZSt6fill_nIPxmxET_S1_T0_RKT1_, symObjAddr: 0x1E894, symBinAddr: 0x10002046C, symSize: 0x48 }
  - { offsetInCU: 0x3BD8F, offset: 0x3BD8F, size: 0x8, addend: 0x0, symName: __ZNSt15__new_allocatorIxE8allocateEmPKv, symObjAddr: 0x1E818, symBinAddr: 0x1000203F0, symSize: 0x7C }
  - { offsetInCU: 0x3BE17, offset: 0x3BE17, size: 0x8, addend: 0x0, symName: __ZSt8__memcmpIiiEiPKT_PKT0_m, symObjAddr: 0x1E7E4, symBinAddr: 0x1000203BC, symSize: 0x34 }
  - { offsetInCU: 0x3BE72, offset: 0x3BE72, size: 0x8, addend: 0x0, symName: __ZSt18__do_uninit_fill_nIPSt6vectorIiSaIiEEmS2_ET_S4_T0_RKT1_, symObjAddr: 0x1E754, symBinAddr: 0x10002032C, symSize: 0x90 }
  - { offsetInCU: 0x3BEEE, offset: 0x3BEEE, size: 0x8, addend: 0x0, symName: __ZNSt15__new_allocatorISt6vectorIiSaIiEEE8allocateEmPKv, symObjAddr: 0x1E6C4, symBinAddr: 0x10002029C, symSize: 0x90 }
  - { offsetInCU: 0x3BF7A, offset: 0x3BF7A, size: 0x8, addend: 0x0, symName: __ZN9__gnu_cxx5__ops14_Val_comp_iterIZ30shortest_processing_time_ordervEUliiE_EclIiNS_17__normal_iteratorIPiSt6vectorIiSaIiEEEEEEbRT_T0_, symObjAddr: 0x1E678, symBinAddr: 0x100020250, symSize: 0x4C }
  - { offsetInCU: 0x3BFFA, offset: 0x3BFFA, size: 0x8, addend: 0x0, symName: __ZN9__gnu_cxx5__ops14_Val_comp_iterIZ30shortest_processing_time_ordervEUliiE_EC1EONS0_15_Iter_comp_iterIS2_EE, symObjAddr: 0x1E654, symBinAddr: 0x10002022C, symSize: 0x24 }
  - { offsetInCU: 0x3C031, offset: 0x3C031, size: 0x8, addend: 0x0, symName: __ZSt4moveIRN9__gnu_cxx5__ops15_Iter_comp_iterIZ30shortest_processing_time_ordervEUliiE_EEEONSt16remove_referenceIT_E4typeEOS7_, symObjAddr: 0x1E640, symBinAddr: 0x100020218, symSize: 0x14 }
  - { offsetInCU: 0x3C063, offset: 0x3C063, size: 0x8, addend: 0x0, symName: __ZSt10__pop_heapIN9__gnu_cxx17__normal_iteratorIPiSt6vectorIiSaIiEEEENS0_5__ops15_Iter_comp_iterIZ30shortest_processing_time_ordervEUliiE_EEEvT_SB_SB_RT0_, symObjAddr: 0x1E5AC, symBinAddr: 0x100020184, symSize: 0x94 }
  - { offsetInCU: 0x3C0F9, offset: 0x3C0F9, size: 0x8, addend: 0x0, symName: __ZSt11__make_heapIN9__gnu_cxx17__normal_iteratorIPiSt6vectorIiSaIiEEEENS0_5__ops15_Iter_comp_iterIZ30shortest_processing_time_ordervEUliiE_EEEvT_SB_RT0_, symObjAddr: 0x1E4D0, symBinAddr: 0x1000200A8, symSize: 0xDC }
  - { offsetInCU: 0x3C1B4, offset: 0x3C1B4, size: 0x8, addend: 0x0, symName: __ZN9__gnu_cxx5__ops14_Val_comp_iterIZ15greedy_backwardvEUliiE_EclIiNS_17__normal_iteratorIPiSt6vectorIiSaIiEEEEEEbRT_T0_, symObjAddr: 0x1E484, symBinAddr: 0x10002005C, symSize: 0x4C }
  - { offsetInCU: 0x3C234, offset: 0x3C234, size: 0x8, addend: 0x0, symName: __ZN9__gnu_cxx5__ops14_Val_comp_iterIZ15greedy_backwardvEUliiE_EC1EONS0_15_Iter_comp_iterIS2_EE, symObjAddr: 0x1E460, symBinAddr: 0x100020038, symSize: 0x24 }
  - { offsetInCU: 0x3C26B, offset: 0x3C26B, size: 0x8, addend: 0x0, symName: __ZSt4moveIRN9__gnu_cxx5__ops15_Iter_comp_iterIZ15greedy_backwardvEUliiE_EEEONSt16remove_referenceIT_E4typeEOS7_, symObjAddr: 0x1E44C, symBinAddr: 0x100020024, symSize: 0x14 }
  - { offsetInCU: 0x3C29D, offset: 0x3C29D, size: 0x8, addend: 0x0, symName: __ZSt10__pop_heapIN9__gnu_cxx17__normal_iteratorIPiSt6vectorIiSaIiEEEENS0_5__ops15_Iter_comp_iterIZ15greedy_backwardvEUliiE_EEEvT_SB_SB_RT0_, symObjAddr: 0x1E3B8, symBinAddr: 0x10001FF90, symSize: 0x94 }
  - { offsetInCU: 0x3C333, offset: 0x3C333, size: 0x8, addend: 0x0, symName: __ZSt11__make_heapIN9__gnu_cxx17__normal_iteratorIPiSt6vectorIiSaIiEEEENS0_5__ops15_Iter_comp_iterIZ15greedy_backwardvEUliiE_EEEvT_SB_RT0_, symObjAddr: 0x1E2DC, symBinAddr: 0x10001FEB4, symSize: 0xDC }
  - { offsetInCU: 0x3C3EA, offset: 0x3C3EA, size: 0x8, addend: 0x0, symName: __ZNSt11__copy_moveILb0ELb1ESt26random_access_iterator_tagE8__copy_mIiiEEPT0_PT_S6_S4_, symObjAddr: 0x1E24C, symBinAddr: 0x10001FE24, symSize: 0x90 }
  - { offsetInCU: 0x3C459, offset: 0x3C459, size: 0x8, addend: 0x0, symName: __ZNSt11__copy_moveILb0ELb1ESt26random_access_iterator_tagE8__copy_mIKiiEEPT0_PT_S7_S5_, symObjAddr: 0x1E1BC, symBinAddr: 0x10001FD94, symSize: 0x90 }
  - { offsetInCU: 0x3C4C8, offset: 0x3C4C8, size: 0x8, addend: 0x0, symName: __ZSt13__copy_move_aILb0EN9__gnu_cxx17__normal_iteratorIPKiSt6vectorIiSaIiEEEEPiET1_T0_SA_S9_, symObjAddr: 0x1E15C, symBinAddr: 0x10001FD34, symSize: 0x60 }
  - { offsetInCU: 0x3C534, offset: 0x3C534, size: 0x8, addend: 0x0, symName: __ZN9__gnu_cxx5__ops14_Val_comp_iterIZ15greedy_fordwardvEUliiE_EclIiNS_17__normal_iteratorIPiSt6vectorIiSaIiEEEEEEbRT_T0_, symObjAddr: 0x1E110, symBinAddr: 0x10001FCE8, symSize: 0x4C }
  - { offsetInCU: 0x3C5B4, offset: 0x3C5B4, size: 0x8, addend: 0x0, symName: __ZN9__gnu_cxx5__ops14_Val_comp_iterIZ15greedy_fordwardvEUliiE_EC1EONS0_15_Iter_comp_iterIS2_EE, symObjAddr: 0x1E0EC, symBinAddr: 0x10001FCC4, symSize: 0x24 }
  - { offsetInCU: 0x3C5EB, offset: 0x3C5EB, size: 0x8, addend: 0x0, symName: __ZSt4moveIRN9__gnu_cxx5__ops15_Iter_comp_iterIZ15greedy_fordwardvEUliiE_EEEONSt16remove_referenceIT_E4typeEOS7_, symObjAddr: 0x1E0D8, symBinAddr: 0x10001FCB0, symSize: 0x14 }
  - { offsetInCU: 0x3C61D, offset: 0x3C61D, size: 0x8, addend: 0x0, symName: __ZSt22__copy_move_backward_aILb1EN9__gnu_cxx17__normal_iteratorIPiSt6vectorIiSaIiEEEES6_ET1_T0_S8_S7_, symObjAddr: 0x1E078, symBinAddr: 0x10001FC50, symSize: 0x60 }
  - { offsetInCU: 0x3C685, offset: 0x3C685, size: 0x8, addend: 0x0, symName: __ZSt12__miter_baseIN9__gnu_cxx17__normal_iteratorIPiSt6vectorIiSaIiEEEEET_S7_, symObjAddr: 0x1E064, symBinAddr: 0x10001FC3C, symSize: 0x14 }
  - { offsetInCU: 0x3C6B8, offset: 0x3C6B8, size: 0x8, addend: 0x0, symName: __ZSt10__pop_heapIN9__gnu_cxx17__normal_iteratorIPiSt6vectorIiSaIiEEEENS0_5__ops15_Iter_comp_iterIZ15greedy_fordwardvEUliiE_EEEvT_SB_SB_RT0_, symObjAddr: 0x1DFD0, symBinAddr: 0x10001FBA8, symSize: 0x94 }
  - { offsetInCU: 0x3C74E, offset: 0x3C74E, size: 0x8, addend: 0x0, symName: __ZSt11__make_heapIN9__gnu_cxx17__normal_iteratorIPiSt6vectorIiSaIiEEEENS0_5__ops15_Iter_comp_iterIZ15greedy_fordwardvEUliiE_EEEvT_SB_RT0_, symObjAddr: 0x1DEF4, symBinAddr: 0x10001FACC, symSize: 0xDC }
  - { offsetInCU: 0x3C805, offset: 0x3C805, size: 0x8, addend: 0x0, symName: __ZSt6fill_nIPimiET_S1_T0_RKT1_, symObjAddr: 0x1DEAC, symBinAddr: 0x10001FA84, symSize: 0x48 }
  - { offsetInCU: 0x3C88D, offset: 0x3C88D, size: 0x8, addend: 0x0, symName: __ZSt10_ConstructIiJEEvPT_DpOT0_, symObjAddr: 0x1DE80, symBinAddr: 0x10001FA58, symSize: 0x2C }
  - { offsetInCU: 0x3C8CD, offset: 0x3C8CD, size: 0x8, addend: 0x0, symName: __ZNSt15__new_allocatorImE8allocateEmPKv, symObjAddr: 0x1DE04, symBinAddr: 0x10001F9DC, symSize: 0x7C }
  - { offsetInCU: 0x3C970, offset: 0x3C970, size: 0x8, addend: 0x0, symName: __ZSt6fill_nIPymyET_S1_T0_RKT1_, symObjAddr: 0x1DDBC, symBinAddr: 0x10001F994, symSize: 0x48 }
  - { offsetInCU: 0x3C9F8, offset: 0x3C9F8, size: 0x8, addend: 0x0, symName: __ZSt10_ConstructIyJEEvPT_DpOT0_, symObjAddr: 0x1DD90, symBinAddr: 0x10001F968, symSize: 0x2C }
  - { offsetInCU: 0x3CA34, offset: 0x3CA34, size: 0x8, addend: 0x0, symName: __ZSt11__addressofIyEPT_RS0_, symObjAddr: 0x1DD7C, symBinAddr: 0x10001F954, symSize: 0x14 }
  - { offsetInCU: 0x3CA80, offset: 0x3CA80, size: 0x8, addend: 0x0, symName: __ZNSt15__new_allocatorISt13_Rb_tree_nodeIiEE10deallocateEPS1_m, symObjAddr: 0x1DD40, symBinAddr: 0x10001F918, symSize: 0x3C }
  - { offsetInCU: 0x3CAF6, offset: 0x3CAF6, size: 0x8, addend: 0x0, symName: __ZN9__gnu_cxx16__aligned_membufIiE6_M_ptrEv, symObjAddr: 0x1DD24, symBinAddr: 0x10001F8FC, symSize: 0x1C }
  - { offsetInCU: 0x3CB20, offset: 0x3CB20, size: 0x8, addend: 0x0, symName: __ZNKSt4lessIPKcEclES1_S1_, symObjAddr: 0x1DCD0, symBinAddr: 0x10001F8A8, symSize: 0x54 }
  - { offsetInCU: 0x3CB82, offset: 0x3CB82, size: 0x8, addend: 0x0, symName: __ZSt11__addressofIKcEPT_RS1_, symObjAddr: 0x1DCBC, symBinAddr: 0x10001F894, symSize: 0x14 }
  - { offsetInCU: 0x3CBCA, offset: 0x3CBCA, size: 0x8, addend: 0x0, symName: __ZSt25__unguarded_linear_insertIN9__gnu_cxx17__normal_iteratorIPSt5tupleIJiiiEESt6vectorIS3_SaIS3_EEEENS0_5__ops14_Val_less_iterEEvT_T0_, symObjAddr: 0x1DC04, symBinAddr: 0x10001F7DC, symSize: 0xB8 }
  - { offsetInCU: 0x3CC3D, offset: 0x3CC3D, size: 0x8, addend: 0x0, symName: __ZNSt5tupleIJiiiEEaSEOS0_, symObjAddr: 0x1DBC8, symBinAddr: 0x10001F7A0, symSize: 0x3C }
  - { offsetInCU: 0x3CC74, offset: 0x3CC74, size: 0x8, addend: 0x0, symName: __ZSt13move_backwardIN9__gnu_cxx17__normal_iteratorIPSt5tupleIJiiiEESt6vectorIS3_SaIS3_EEEES8_ET0_T_SA_S9_, symObjAddr: 0x1DB80, symBinAddr: 0x10001F758, symSize: 0x48 }
  - { offsetInCU: 0x3CD1D, offset: 0x3CD1D, size: 0x8, addend: 0x0, symName: __ZNSt11_Tuple_implILm2EJiEEC2EOS0_, symObjAddr: 0x1DB58, symBinAddr: 0x10001F730, symSize: 0x28 }
  - { offsetInCU: 0x3CD30, offset: 0x3CD30, size: 0x8, addend: 0x0, symName: __ZSt4moveIRSt5tupleIJiiiEEEONSt16remove_referenceIT_E4typeEOS4_, symObjAddr: 0x1DB44, symBinAddr: 0x10001F71C, symSize: 0x14 }
  - { offsetInCU: 0x3CD72, offset: 0x3CD72, size: 0x8, addend: 0x0, symName: __ZNK9__gnu_cxx5__ops15_Iter_less_iterclINS_17__normal_iteratorIPSt5tupleIJiiiEESt6vectorIS5_SaIS5_EEEESA_EEbT_T0_, symObjAddr: 0x1DB00, symBinAddr: 0x10001F6D8, symSize: 0x44 }
  - { offsetInCU: 0x3CDCE, offset: 0x3CDCE, size: 0x8, addend: 0x0, symName: __ZN9__gnu_cxx17__normal_iteratorIPSt5tupleIJiiiEESt6vectorIS2_SaIS2_EEEppEv, symObjAddr: 0x1DAD8, symBinAddr: 0x10001F6B0, symSize: 0x28 }
  - { offsetInCU: 0x3CDF4, offset: 0x3CDF4, size: 0x8, addend: 0x0, symName: __ZN9__gnu_cxxeqIPSt5tupleIJiiiEESt6vectorIS2_SaIS2_EEEEbRKNS_17__normal_iteratorIT_T0_EESC_, symObjAddr: 0x1DA94, symBinAddr: 0x10001F66C, symSize: 0x44 }
  - { offsetInCU: 0x3CE41, offset: 0x3CE41, size: 0x8, addend: 0x0, symName: __ZSt21__unguarded_partitionIN9__gnu_cxx17__normal_iteratorIPSt5tupleIJiiiEESt6vectorIS3_SaIS3_EEEENS0_5__ops15_Iter_less_iterEET_SB_SB_SB_T0_, symObjAddr: 0x1D9DC, symBinAddr: 0x10001F5B4, symSize: 0xB8 }
  - { offsetInCU: 0x3CEB0, offset: 0x3CEB0, size: 0x8, addend: 0x0, symName: __ZSt22__move_median_to_firstIN9__gnu_cxx17__normal_iteratorIPSt5tupleIJiiiEESt6vectorIS3_SaIS3_EEEENS0_5__ops15_Iter_less_iterEEvT_SB_SB_SB_T0_, symObjAddr: 0x1D8CC, symBinAddr: 0x10001F4A4, symSize: 0x110 }
  - { offsetInCU: 0x3CF2B, offset: 0x3CF2B, size: 0x8, addend: 0x0, symName: __ZSt11__sort_heapIN9__gnu_cxx17__normal_iteratorIPSt5tupleIJiiiEESt6vectorIS3_SaIS3_EEEENS0_5__ops15_Iter_less_iterEEvT_SB_RT0_, symObjAddr: 0x1D864, symBinAddr: 0x10001F43C, symSize: 0x68 }
  - { offsetInCU: 0x3CF89, offset: 0x3CF89, size: 0x8, addend: 0x0, symName: __ZSt13__heap_selectIN9__gnu_cxx17__normal_iteratorIPSt5tupleIJiiiEESt6vectorIS3_SaIS3_EEEENS0_5__ops15_Iter_less_iterEEvT_SB_SB_T0_, symObjAddr: 0x1D7C8, symBinAddr: 0x10001F3A0, symSize: 0x9C }
  - { offsetInCU: 0x3D020, offset: 0x3D020, size: 0x8, addend: 0x0, symName: __ZNK9__gnu_cxx17__normal_iteratorIPKSt5tupleIJiiiEESt6vectorIS2_SaIS2_EEE4baseEv, symObjAddr: 0x1D7B4, symBinAddr: 0x10001F38C, symSize: 0x14 }
  - { offsetInCU: 0x3D0BF, offset: 0x3D0BF, size: 0x8, addend: 0x0, symName: __ZN9__gnu_cxx17__normal_iteratorIPKSt5tupleIJiiiEESt6vectorIS2_SaIS2_EEEC1ERKS4_, symObjAddr: 0x1D78C, symBinAddr: 0x10001F364, symSize: 0x28 }
  - { offsetInCU: 0x3D09D, offset: 0x3D09D, size: 0x8, addend: 0x0, symName: __ZSt14__relocate_a_1IPSt5tupleIJiiiEES2_SaIS1_EET0_T_S5_S4_RT1_, symObjAddr: 0x1D708, symBinAddr: 0x10001F2E0, symSize: 0x84 }
  - { offsetInCU: 0x3D126, offset: 0x3D126, size: 0x8, addend: 0x0, symName: __ZSt12__niter_baseIPSt5tupleIJiiiEEET_S3_, symObjAddr: 0x1D6F4, symBinAddr: 0x10001F2CC, symSize: 0x14 }
  - { offsetInCU: 0x3D15D, offset: 0x3D15D, size: 0x8, addend: 0x0, symName: __ZNSt15__new_allocatorISt5tupleIJiiiEEE8allocateEmPKv, symObjAddr: 0x1D664, symBinAddr: 0x10001F23C, symSize: 0x90 }
  - { offsetInCU: 0x3D1E9, offset: 0x3D1E9, size: 0x8, addend: 0x0, symName: __ZNKSt12_Vector_baseISt5tupleIJiiiEESaIS1_EE19_M_get_Tp_allocatorEv, symObjAddr: 0x1D650, symBinAddr: 0x10001F228, symSize: 0x14 }
  - { offsetInCU: 0x3D20F, offset: 0x3D20F, size: 0x8, addend: 0x0, symName: __ZNSt6vectorISt5tupleIJiiiEESaIS1_EE11_S_max_sizeERKS2_, symObjAddr: 0x1D5F4, symBinAddr: 0x10001F1CC, symSize: 0x5C }
  - { offsetInCU: 0x3D34F, offset: 0x3D34F, size: 0x8, addend: 0x0, symName: __ZNSt11_Tuple_implILm0EJiiiEEC2IRiJS2_S2_EvEEOT_DpOT0_, symObjAddr: 0x1D584, symBinAddr: 0x10001F15C, symSize: 0x70 }
  - { offsetInCU: 0x3D379, offset: 0x3D379, size: 0x8, addend: 0x0, symName: __ZSt13__copy_move_aILb0ESt13_Bit_iteratorS0_ET1_T0_S2_S1_, symObjAddr: 0x1D4C0, symBinAddr: 0x10001F098, symSize: 0xC4 }
  - { offsetInCU: 0x3D3E4, offset: 0x3D3E4, size: 0x8, addend: 0x0, symName: __ZSt4copyISt19_Bit_const_iteratorSt13_Bit_iteratorET0_T_S3_S2_, symObjAddr: 0x1D420, symBinAddr: 0x10001EFF8, symSize: 0xA0 }
  - { offsetInCU: 0x3D444, offset: 0x3D444, size: 0x8, addend: 0x0, symName: __ZSt4copyIPmS0_ET0_T_S2_S1_, symObjAddr: 0x1D3D8, symBinAddr: 0x10001EFB0, symSize: 0x48 }
  - { offsetInCU: 0x3D4A6, offset: 0x3D4A6, size: 0x8, addend: 0x0, symName: __ZNKSt6vectorIbSaIbEE8max_sizeEv, symObjAddr: 0x1D370, symBinAddr: 0x10001EF48, symSize: 0x68 }
  - { offsetInCU: 0x3D559, offset: 0x3D559, size: 0x8, addend: 0x0, symName: __ZSt8__fill_aISt13_Bit_iteratorbEvT_S1_RKT0_, symObjAddr: 0x1D320, symBinAddr: 0x10001EEF8, symSize: 0x50 }
  - { offsetInCU: 0x3D5B7, offset: 0x3D5B7, size: 0x8, addend: 0x0, symName: __ZSt22__copy_move_backward_aILb0ESt13_Bit_iteratorS0_ET1_T0_S2_S1_, symObjAddr: 0x1D25C, symBinAddr: 0x10001EE34, symSize: 0xC4 }
  - { offsetInCU: 0x3D622, offset: 0x3D622, size: 0x8, addend: 0x0, symName: __ZSt12__miter_baseISt13_Bit_iteratorET_S1_, symObjAddr: 0x1D220, symBinAddr: 0x10001EDF8, symSize: 0x3C }
  - { offsetInCU: 0x3D655, offset: 0x3D655, size: 0x8, addend: 0x0, symName: __ZSt8_DestroyISt6vectorIbSaIbEEEvPT_, symObjAddr: 0x1D200, symBinAddr: 0x10001EDD8, symSize: 0x20 }
  - { offsetInCU: 0x3D687, offset: 0x3D687, size: 0x8, addend: 0x0, symName: __ZSt11__addressofISt6vectorIbSaIbEEEPT_RS3_, symObjAddr: 0x1D1EC, symBinAddr: 0x10001EDC4, symSize: 0x14 }
  - { offsetInCU: 0x3D6B9, offset: 0x3D6B9, size: 0x8, addend: 0x0, symName: __ZNSt27__uninitialized_default_n_1ILb0EE18__uninit_default_nIPSt6vectorIbSaIbEEmEET_S6_T0_, symObjAddr: 0x1D194, symBinAddr: 0x10001ED6C, symSize: 0x58 }
  - { offsetInCU: 0x3D71B, offset: 0x3D71B, size: 0x8, addend: 0x0, symName: __ZNSt15__new_allocatorISt6vectorIbSaIbEEE10deallocateEPS2_m, symObjAddr: 0x1D158, symBinAddr: 0x10001ED30, symSize: 0x3C }
  - { offsetInCU: 0x3D79B, offset: 0x3D79B, size: 0x8, addend: 0x0, symName: __ZSt9__fill_a1IPddEN9__gnu_cxx11__enable_ifIXsrSt11__is_scalarIT0_E7__valueEvE6__typeET_S8_RKS4_, symObjAddr: 0x1D100, symBinAddr: 0x10001ECD8, symSize: 0x58 }
  - { offsetInCU: 0x3D80A, offset: 0x3D80A, size: 0x8, addend: 0x0, symName: __ZSt23__copy_move_backward_a1ILb1EPdS0_ET1_T0_S2_S1_, symObjAddr: 0x1D0D4, symBinAddr: 0x10001ECAC, symSize: 0x2C }
  - { offsetInCU: 0x3D872, offset: 0x3D872, size: 0x8, addend: 0x0, symName: __ZSt18uninitialized_copyISt13move_iteratorIPdES1_ET0_T_S4_S3_, symObjAddr: 0x1D098, symBinAddr: 0x10001EC70, symSize: 0x3C }
  - { offsetInCU: 0x3D934, offset: 0x3D934, size: 0x8, addend: 0x0, symName: __ZNSt13move_iteratorIPdEC1ES0_, symObjAddr: 0x1D068, symBinAddr: 0x10001EC40, symSize: 0x30 }
  - { offsetInCU: 0x3D94B, offset: 0x3D94B, size: 0x8, addend: 0x0, symName: __ZSt4moveIRPdEONSt16remove_referenceIT_E4typeEOS3_, symObjAddr: 0x1D054, symBinAddr: 0x10001EC2C, symSize: 0x14 }
  - { offsetInCU: 0x3D97D, offset: 0x3D97D, size: 0x8, addend: 0x0, symName: __ZSt11__addressofIdEPT_RS0_, symObjAddr: 0x1D040, symBinAddr: 0x10001EC18, symSize: 0x14 }
  - { offsetInCU: 0x3D9AF, offset: 0x3D9AF, size: 0x8, addend: 0x0, symName: __ZSt9__fill_a1IPiiEN9__gnu_cxx11__enable_ifIXsrSt11__is_scalarIT0_E7__valueEvE6__typeET_S8_RKS4_, symObjAddr: 0x1CFE8, symBinAddr: 0x10001EBC0, symSize: 0x58 }
  - { offsetInCU: 0x3DA1E, offset: 0x3DA1E, size: 0x8, addend: 0x0, symName: __ZSt23__copy_move_backward_a1ILb1EPiS0_ET1_T0_S2_S1_, symObjAddr: 0x1CFBC, symBinAddr: 0x10001EB94, symSize: 0x2C }
  - { offsetInCU: 0x3DA86, offset: 0x3DA86, size: 0x8, addend: 0x0, symName: __ZSt18uninitialized_copyISt13move_iteratorIPiES1_ET0_T_S4_S3_, symObjAddr: 0x1CF80, symBinAddr: 0x10001EB58, symSize: 0x3C }
  - { offsetInCU: 0x3DB48, offset: 0x3DB48, size: 0x8, addend: 0x0, symName: __ZNSt13move_iteratorIPiEC1ES0_, symObjAddr: 0x1CF50, symBinAddr: 0x10001EB28, symSize: 0x30 }
  - { offsetInCU: 0x3DB65, offset: 0x3DB65, size: 0x8, addend: 0x0, symName: __ZSt4moveIRPiEONSt16remove_referenceIT_E4typeEOS3_, symObjAddr: 0x1CF3C, symBinAddr: 0x10001EB14, symSize: 0x14 }
  - { offsetInCU: 0x3DBC3, offset: 0x3DBC3, size: 0x8, addend: 0x0, symName: __ZSt11__addressofIiEPT_RS0_, symObjAddr: 0x1CF28, symBinAddr: 0x10001EB00, symSize: 0x14 }
  - { offsetInCU: 0x3DBF5, offset: 0x3DBF5, size: 0x8, addend: 0x0, symName: __ZSt13copy_backwardIPPdS1_ET0_T_S3_S2_, symObjAddr: 0x1CEE0, symBinAddr: 0x10001EAB8, symSize: 0x48 }
  - { offsetInCU: 0x3DC53, offset: 0x3DC53, size: 0x8, addend: 0x0, symName: __ZSt4copyIPPdS1_ET0_T_S3_S2_, symObjAddr: 0x1CE98, symBinAddr: 0x10001EA70, symSize: 0x48 }
  - { offsetInCU: 0x3DCCB, offset: 0x3DCCB, size: 0x8, addend: 0x0, symName: __ZNSt15__new_allocatorIPdE8allocateEmPKv, symObjAddr: 0x1CE1C, symBinAddr: 0x10001E9F4, symSize: 0x7C }
  - { offsetInCU: 0x3DD53, offset: 0x3DD53, size: 0x8, addend: 0x0, symName: __ZSt4copyIN9__gnu_cxx17__normal_iteratorIPKdSt6vectorIdSaIdEEEEPdET0_T_SA_S9_, symObjAddr: 0x1CDD4, symBinAddr: 0x10001E9AC, symSize: 0x48 }
  - { offsetInCU: 0x3DDB1, offset: 0x3DDB1, size: 0x8, addend: 0x0, symName: __ZNSt22__uninitialized_fill_nILb1EE15__uninit_fill_nIPdmdEET_S3_T0_RKT1_, symObjAddr: 0x1CDA8, symBinAddr: 0x10001E980, symSize: 0x2C }
  - { offsetInCU: 0x3DE18, offset: 0x3DE18, size: 0x8, addend: 0x0, symName: __ZSt14__copy_move_a2ILb0EPdS0_ET1_T0_S2_S1_, symObjAddr: 0x1CD7C, symBinAddr: 0x10001E954, symSize: 0x2C }
  - { offsetInCU: 0x3DE84, offset: 0x3DE84, size: 0x8, addend: 0x0, symName: __ZNK9__gnu_cxx17__normal_iteratorIPdSt6vectorIdSaIdEEEplEl, symObjAddr: 0x1CD3C, symBinAddr: 0x10001E914, symSize: 0x40 }
  - { offsetInCU: 0x3DEBB, offset: 0x3DEBB, size: 0x8, addend: 0x0, symName: __ZSt14__copy_move_a2ILb0EPKdPdET1_T0_S4_S3_, symObjAddr: 0x1CD10, symBinAddr: 0x10001E8E8, symSize: 0x2C }
  - { offsetInCU: 0x3DF27, offset: 0x3DF27, size: 0x8, addend: 0x0, symName: __ZNK9__gnu_cxx17__normal_iteratorIPKdSt6vectorIdSaIdEEE4baseEv, symObjAddr: 0x1CCFC, symBinAddr: 0x10001E8D4, symSize: 0x14 }
  - { offsetInCU: 0x3DF51, offset: 0x3DF51, size: 0x8, addend: 0x0, symName: __ZNSt15__new_allocatorIdE8allocateEmPKv, symObjAddr: 0x1CC80, symBinAddr: 0x10001E858, symSize: 0x7C }
  - { offsetInCU: 0x3DFD9, offset: 0x3DFD9, size: 0x8, addend: 0x0, symName: __ZNSt27__uninitialized_default_n_1ILb1EE18__uninit_default_nIPdmEET_S3_T0_, symObjAddr: 0x1CC1C, symBinAddr: 0x10001E7F4, symSize: 0x64 }
  - { offsetInCU: 0x3E067, offset: 0x3E067, size: 0x8, addend: 0x0, symName: __ZNSt22__uninitialized_fill_nILb0EE15__uninit_fill_nIPSt4pairIiiEmS3_EET_S5_T0_RKT1_, symObjAddr: 0x1CBF0, symBinAddr: 0x10001E7C8, symSize: 0x2C }
  - { offsetInCU: 0x3E0D2, offset: 0x3E0D2, size: 0x8, addend: 0x0, symName: __ZNSt15__new_allocatorISt4pairIiiEE10deallocateEPS1_m, symObjAddr: 0x1CBC0, symBinAddr: 0x10001E798, symSize: 0x30 }
  - { offsetInCU: 0x3E152, offset: 0x3E152, size: 0x8, addend: 0x0, symName: __ZSt8_DestroyISt6vectorIxSaIxEEEvPT_, symObjAddr: 0x1CBA0, symBinAddr: 0x10001E778, symSize: 0x20 }
  - { offsetInCU: 0x3E184, offset: 0x3E184, size: 0x8, addend: 0x0, symName: __ZSt11__addressofISt6vectorIxSaIxEEEPT_RS3_, symObjAddr: 0x1CB8C, symBinAddr: 0x10001E764, symSize: 0x14 }
  - { offsetInCU: 0x3E1B6, offset: 0x3E1B6, size: 0x8, addend: 0x0, symName: __ZNSt22__uninitialized_fill_nILb0EE15__uninit_fill_nIPSt6vectorIxSaIxEEmS4_EET_S6_T0_RKT1_, symObjAddr: 0x1CB60, symBinAddr: 0x10001E738, symSize: 0x2C }
  - { offsetInCU: 0x3E221, offset: 0x3E221, size: 0x8, addend: 0x0, symName: __ZNSt15__new_allocatorISt6vectorIxSaIxEEE10deallocateEPS2_m, symObjAddr: 0x1CB24, symBinAddr: 0x10001E6FC, symSize: 0x3C }
  - { offsetInCU: 0x3E2A1, offset: 0x3E2A1, size: 0x8, addend: 0x0, symName: __ZNSt22__uninitialized_fill_nILb1EE15__uninit_fill_nIPxmxEET_S3_T0_RKT1_, symObjAddr: 0x1CAF8, symBinAddr: 0x10001E6D0, symSize: 0x2C }
  - { offsetInCU: 0x3E30C, offset: 0x3E30C, size: 0x8, addend: 0x0, symName: __ZNSt15__new_allocatorIxE10deallocateEPxm, symObjAddr: 0x1CAC8, symBinAddr: 0x10001E6A0, symSize: 0x30 }
  - { offsetInCU: 0x3E38C, offset: 0x3E38C, size: 0x8, addend: 0x0, symName: __ZNSt22__uninitialized_fill_nILb1EE15__uninit_fill_nIPimiEET_S3_T0_RKT1_, symObjAddr: 0x1CA9C, symBinAddr: 0x10001E674, symSize: 0x2C }
  - { offsetInCU: 0x3E3F3, offset: 0x3E3F3, size: 0x8, addend: 0x0, symName: __ZSt14__relocate_a_1IiiENSt9enable_ifIXsrSt24__is_bitwise_relocatableIT_vE5valueEPS2_E4typeES4_S4_S4_RSaIT0_E, symObjAddr: 0x1CA38, symBinAddr: 0x10001E610, symSize: 0x64 }
  - { offsetInCU: 0x3E473, offset: 0x3E473, size: 0x8, addend: 0x0, symName: __ZNSt7__equalILb1EE5equalIiEEbPKT_S4_S4_, symObjAddr: 0x1C9D8, symBinAddr: 0x10001E5B0, symSize: 0x60 }
  - { offsetInCU: 0x3E4EC, offset: 0x3E4EC, size: 0x8, addend: 0x0, symName: __ZSt8_DestroyISt6vectorIiSaIiEEEvPT_, symObjAddr: 0x1C9B8, symBinAddr: 0x10001E590, symSize: 0x20 }
  - { offsetInCU: 0x3E51E, offset: 0x3E51E, size: 0x8, addend: 0x0, symName: __ZSt11__addressofISt6vectorIiSaIiEEEPT_RS3_, symObjAddr: 0x1C9A4, symBinAddr: 0x10001E57C, symSize: 0x14 }
  - { offsetInCU: 0x3E550, offset: 0x3E550, size: 0x8, addend: 0x0, symName: __ZNSt22__uninitialized_fill_nILb0EE15__uninit_fill_nIPSt6vectorIiSaIiEEmS4_EET_S6_T0_RKT1_, symObjAddr: 0x1C978, symBinAddr: 0x10001E550, symSize: 0x2C }
  - { offsetInCU: 0x3E5BB, offset: 0x3E5BB, size: 0x8, addend: 0x0, symName: __ZNSt15__new_allocatorISt6vectorIiSaIiEEE10deallocateEPS2_m, symObjAddr: 0x1C93C, symBinAddr: 0x10001E514, symSize: 0x3C }
  - { offsetInCU: 0x3E63B, offset: 0x3E63B, size: 0x8, addend: 0x0, symName: __ZSt25__unguarded_linear_insertIN9__gnu_cxx17__normal_iteratorIPiSt6vectorIiSaIiEEEENS0_5__ops14_Val_comp_iterIZ30shortest_processing_time_ordervEUliiE_EEEvT_T0_, symObjAddr: 0x1C890, symBinAddr: 0x10001E468, symSize: 0xAC }
  - { offsetInCU: 0x3E6AA, offset: 0x3E6AA, size: 0x8, addend: 0x0, symName: __ZN9__gnu_cxx5__ops15__val_comp_iterIZ30shortest_processing_time_ordervEUliiE_EENS0_14_Val_comp_iterIT_EENS0_15_Iter_comp_iterIS4_EE, symObjAddr: 0x1C858, symBinAddr: 0x10001E430, symSize: 0x38 }
  - { offsetInCU: 0x3E6E0, offset: 0x3E6E0, size: 0x8, addend: 0x0, symName: __ZN9__gnu_cxx5__ops15_Iter_comp_iterIZ30shortest_processing_time_ordervEUliiE_EclINS_17__normal_iteratorIPiSt6vectorIiSaIiEEEESA_EEbT_T0_, symObjAddr: 0x1C808, symBinAddr: 0x10001E3E0, symSize: 0x50 }
  - { offsetInCU: 0x3E738, offset: 0x3E738, size: 0x8, addend: 0x0, symName: __ZSt21__unguarded_partitionIN9__gnu_cxx17__normal_iteratorIPiSt6vectorIiSaIiEEEENS0_5__ops15_Iter_comp_iterIZ30shortest_processing_time_ordervEUliiE_EEET_SB_SB_SB_T0_, symObjAddr: 0x1C750, symBinAddr: 0x10001E328, symSize: 0xB8 }
  - { offsetInCU: 0x3E7A7, offset: 0x3E7A7, size: 0x8, addend: 0x0, symName: __ZSt22__move_median_to_firstIN9__gnu_cxx17__normal_iteratorIPiSt6vectorIiSaIiEEEENS0_5__ops15_Iter_comp_iterIZ30shortest_processing_time_ordervEUliiE_EEEvT_SB_SB_SB_T0_, symObjAddr: 0x1C640, symBinAddr: 0x10001E218, symSize: 0x110 }
  - { offsetInCU: 0x3E822, offset: 0x3E822, size: 0x8, addend: 0x0, symName: __ZSt11__sort_heapIN9__gnu_cxx17__normal_iteratorIPiSt6vectorIiSaIiEEEENS0_5__ops15_Iter_comp_iterIZ30shortest_processing_time_ordervEUliiE_EEEvT_SB_RT0_, symObjAddr: 0x1C5D8, symBinAddr: 0x10001E1B0, symSize: 0x68 }
  - { offsetInCU: 0x3E880, offset: 0x3E880, size: 0x8, addend: 0x0, symName: __ZSt13__heap_selectIN9__gnu_cxx17__normal_iteratorIPiSt6vectorIiSaIiEEEENS0_5__ops15_Iter_comp_iterIZ30shortest_processing_time_ordervEUliiE_EEEvT_SB_SB_T0_, symObjAddr: 0x1C53C, symBinAddr: 0x10001E114, symSize: 0x9C }
  - { offsetInCU: 0x3E913, offset: 0x3E913, size: 0x8, addend: 0x0, symName: __ZSt25__unguarded_linear_insertIN9__gnu_cxx17__normal_iteratorIPiSt6vectorIiSaIiEEEENS0_5__ops14_Val_comp_iterIZ15greedy_backwardvEUliiE_EEEvT_T0_, symObjAddr: 0x1C490, symBinAddr: 0x10001E068, symSize: 0xAC }
  - { offsetInCU: 0x3E982, offset: 0x3E982, size: 0x8, addend: 0x0, symName: __ZN9__gnu_cxx5__ops15__val_comp_iterIZ15greedy_backwardvEUliiE_EENS0_14_Val_comp_iterIT_EENS0_15_Iter_comp_iterIS4_EE, symObjAddr: 0x1C458, symBinAddr: 0x10001E030, symSize: 0x38 }
  - { offsetInCU: 0x3E9B8, offset: 0x3E9B8, size: 0x8, addend: 0x0, symName: __ZN9__gnu_cxx5__ops15_Iter_comp_iterIZ15greedy_backwardvEUliiE_EclINS_17__normal_iteratorIPiSt6vectorIiSaIiEEEESA_EEbT_T0_, symObjAddr: 0x1C408, symBinAddr: 0x10001DFE0, symSize: 0x50 }
  - { offsetInCU: 0x3EA10, offset: 0x3EA10, size: 0x8, addend: 0x0, symName: __ZSt21__unguarded_partitionIN9__gnu_cxx17__normal_iteratorIPiSt6vectorIiSaIiEEEENS0_5__ops15_Iter_comp_iterIZ15greedy_backwardvEUliiE_EEET_SB_SB_SB_T0_, symObjAddr: 0x1C350, symBinAddr: 0x10001DF28, symSize: 0xB8 }
  - { offsetInCU: 0x3EA7F, offset: 0x3EA7F, size: 0x8, addend: 0x0, symName: __ZSt22__move_median_to_firstIN9__gnu_cxx17__normal_iteratorIPiSt6vectorIiSaIiEEEENS0_5__ops15_Iter_comp_iterIZ15greedy_backwardvEUliiE_EEEvT_SB_SB_SB_T0_, symObjAddr: 0x1C240, symBinAddr: 0x10001DE18, symSize: 0x110 }
  - { offsetInCU: 0x3EAFA, offset: 0x3EAFA, size: 0x8, addend: 0x0, symName: __ZSt11__sort_heapIN9__gnu_cxx17__normal_iteratorIPiSt6vectorIiSaIiEEEENS0_5__ops15_Iter_comp_iterIZ15greedy_backwardvEUliiE_EEEvT_SB_RT0_, symObjAddr: 0x1C1D8, symBinAddr: 0x10001DDB0, symSize: 0x68 }
  - { offsetInCU: 0x3EB58, offset: 0x3EB58, size: 0x8, addend: 0x0, symName: __ZSt13__heap_selectIN9__gnu_cxx17__normal_iteratorIPiSt6vectorIiSaIiEEEENS0_5__ops15_Iter_comp_iterIZ15greedy_backwardvEUliiE_EEEvT_SB_SB_T0_, symObjAddr: 0x1C13C, symBinAddr: 0x10001DD14, symSize: 0x9C }
  - { offsetInCU: 0x3EBEB, offset: 0x3EBEB, size: 0x8, addend: 0x0, symName: __ZSt14__copy_move_a2ILb0EPiS0_ET1_T0_S2_S1_, symObjAddr: 0x1C110, symBinAddr: 0x10001DCE8, symSize: 0x2C }
  - { offsetInCU: 0x3EC53, offset: 0x3EC53, size: 0x8, addend: 0x0, symName: __ZSt14__copy_move_a2ILb0EPKiPiET1_T0_S4_S3_, symObjAddr: 0x1C0E4, symBinAddr: 0x10001DCBC, symSize: 0x2C }
  - { offsetInCU: 0x3ECBF, offset: 0x3ECBF, size: 0x8, addend: 0x0, symName: __ZNSt15__new_allocatorIiE8allocateEmPKv, symObjAddr: 0x1C068, symBinAddr: 0x10001DC40, symSize: 0x7C }
  - { offsetInCU: 0x3ED47, offset: 0x3ED47, size: 0x8, addend: 0x0, symName: __ZSt4copyIN9__gnu_cxx17__normal_iteratorIPKiSt6vectorIiSaIiEEEEPiET0_T_SA_S9_, symObjAddr: 0x1C020, symBinAddr: 0x10001DBF8, symSize: 0x48 }
  - { offsetInCU: 0x3EDA5, offset: 0x3EDA5, size: 0x8, addend: 0x0, symName: __ZSt25__unguarded_linear_insertIN9__gnu_cxx17__normal_iteratorIPiSt6vectorIiSaIiEEEENS0_5__ops14_Val_comp_iterIZ15greedy_fordwardvEUliiE_EEEvT_T0_, symObjAddr: 0x1BF74, symBinAddr: 0x10001DB4C, symSize: 0xAC }
  - { offsetInCU: 0x3EE14, offset: 0x3EE14, size: 0x8, addend: 0x0, symName: __ZN9__gnu_cxx5__ops15__val_comp_iterIZ15greedy_fordwardvEUliiE_EENS0_14_Val_comp_iterIT_EENS0_15_Iter_comp_iterIS4_EE, symObjAddr: 0x1BF3C, symBinAddr: 0x10001DB14, symSize: 0x38 }
  - { offsetInCU: 0x3EE46, offset: 0x3EE46, size: 0x8, addend: 0x0, symName: __ZSt13move_backwardIN9__gnu_cxx17__normal_iteratorIPiSt6vectorIiSaIiEEEES6_ET0_T_S8_S7_, symObjAddr: 0x1BEF4, symBinAddr: 0x10001DACC, symSize: 0x48 }
  - { offsetInCU: 0x3EEA8, offset: 0x3EEA8, size: 0x8, addend: 0x0, symName: __ZN9__gnu_cxx5__ops15_Iter_comp_iterIZ15greedy_fordwardvEUliiE_EclINS_17__normal_iteratorIPiSt6vectorIiSaIiEEEESA_EEbT_T0_, symObjAddr: 0x1BEA4, symBinAddr: 0x10001DA7C, symSize: 0x50 }
  - { offsetInCU: 0x3EF00, offset: 0x3EF00, size: 0x8, addend: 0x0, symName: __ZSt21__unguarded_partitionIN9__gnu_cxx17__normal_iteratorIPiSt6vectorIiSaIiEEEENS0_5__ops15_Iter_comp_iterIZ15greedy_fordwardvEUliiE_EEET_SB_SB_SB_T0_, symObjAddr: 0x1BDEC, symBinAddr: 0x10001D9C4, symSize: 0xB8 }
  - { offsetInCU: 0x3EF6F, offset: 0x3EF6F, size: 0x8, addend: 0x0, symName: __ZSt22__move_median_to_firstIN9__gnu_cxx17__normal_iteratorIPiSt6vectorIiSaIiEEEENS0_5__ops15_Iter_comp_iterIZ15greedy_fordwardvEUliiE_EEEvT_SB_SB_SB_T0_, symObjAddr: 0x1BCDC, symBinAddr: 0x10001D8B4, symSize: 0x110 }
  - { offsetInCU: 0x3EFEA, offset: 0x3EFEA, size: 0x8, addend: 0x0, symName: __ZSt11__sort_heapIN9__gnu_cxx17__normal_iteratorIPiSt6vectorIiSaIiEEEENS0_5__ops15_Iter_comp_iterIZ15greedy_fordwardvEUliiE_EEEvT_SB_RT0_, symObjAddr: 0x1BC74, symBinAddr: 0x10001D84C, symSize: 0x68 }
  - { offsetInCU: 0x3F048, offset: 0x3F048, size: 0x8, addend: 0x0, symName: __ZSt13__heap_selectIN9__gnu_cxx17__normal_iteratorIPiSt6vectorIiSaIiEEEENS0_5__ops15_Iter_comp_iterIZ15greedy_fordwardvEUliiE_EEEvT_SB_SB_T0_, symObjAddr: 0x1BBD8, symBinAddr: 0x10001D7B0, symSize: 0x9C }
  - { offsetInCU: 0x3F0DB, offset: 0x3F0DB, size: 0x8, addend: 0x0, symName: __ZNSt27__uninitialized_default_n_1ILb1EE18__uninit_default_nIPimEET_S3_T0_, symObjAddr: 0x1BB74, symBinAddr: 0x10001D74C, symSize: 0x64 }
  - { offsetInCU: 0x3F1DB, offset: 0x3F1DB, size: 0x8, addend: 0x0, symName: __ZNSt13_Bvector_baseISaIbEE18_Bvector_impl_dataC1Ev, symObjAddr: 0x1BB40, symBinAddr: 0x10001D718, symSize: 0x34 }
  - { offsetInCU: 0x3F205, offset: 0x3F205, size: 0x8, addend: 0x0, symName: __ZNSt13_Bvector_baseISaIbEE18_Bvector_impl_dataC2Ev, symObjAddr: 0x1BB0C, symBinAddr: 0x10001D6E4, symSize: 0x34 }
  - { offsetInCU: 0x3F273, offset: 0x3F273, size: 0x8, addend: 0x0, symName: __ZNSt12_Vector_baseIySaIyEE12_Vector_implC1ERKS0_, symObjAddr: 0x1BAC0, symBinAddr: 0x10001D698, symSize: 0x4C }
  - { offsetInCU: 0x3F2F9, offset: 0x3F2F9, size: 0x8, addend: 0x0, symName: __ZSt14__relocate_a_1IyyENSt9enable_ifIXsrSt24__is_bitwise_relocatableIT_vE5valueEPS2_E4typeES4_S4_S4_RSaIT0_E, symObjAddr: 0x1BA5C, symBinAddr: 0x10001D634, symSize: 0x64 }
  - { offsetInCU: 0x3F379, offset: 0x3F379, size: 0x8, addend: 0x0, symName: __ZSt12__niter_baseIPyET_S1_, symObjAddr: 0x1BA48, symBinAddr: 0x10001D620, symSize: 0x14 }
  - { offsetInCU: 0x3F3B0, offset: 0x3F3B0, size: 0x8, addend: 0x0, symName: __ZNSt15__new_allocatorIyE8allocateEmPKv, symObjAddr: 0x1B9CC, symBinAddr: 0x10001D5A4, symSize: 0x7C }
  - { offsetInCU: 0x3F438, offset: 0x3F438, size: 0x8, addend: 0x0, symName: __ZNSt27__uninitialized_default_n_1ILb1EE18__uninit_default_nIPymEET_S3_T0_, symObjAddr: 0x1B968, symBinAddr: 0x10001D540, symSize: 0x64 }
  - { offsetInCU: 0x3F529, offset: 0x3F529, size: 0x8, addend: 0x0, symName: __ZNSt13_Rb_tree_nodeIiE9_M_valptrEv, symObjAddr: 0x1B948, symBinAddr: 0x10001D520, symSize: 0x20 }
  - { offsetInCU: 0x3F553, offset: 0x3F553, size: 0x8, addend: 0x0, symName: __ZNSt8_Rb_treeIiiSt9_IdentityIiESt4lessIiESaIiEE21_M_get_Node_allocatorEv, symObjAddr: 0x1B934, symBinAddr: 0x10001D50C, symSize: 0x14 }
  - { offsetInCU: 0x3F57D, offset: 0x3F57D, size: 0x8, addend: 0x0, symName: __ZNSt15__new_allocatorIcE8allocateEmPKv, symObjAddr: 0x1B8D0, symBinAddr: 0x10001D4A8, symSize: 0x64 }
  - { offsetInCU: 0x3F60E, offset: 0x3F60E, size: 0x8, addend: 0x0, symName: __ZNSt7__cxx1112basic_stringIcSt11char_traitsIcESaIcEE15_M_replace_coldEPcmPKcmm, symObjAddr: 0x1B738, symBinAddr: 0x10001D310, symSize: 0x198 }
  - { offsetInCU: 0x3F6D4, offset: 0x3F6D4, size: 0x8, addend: 0x0, symName: __ZNKSt7__cxx1112basic_stringIcSt11char_traitsIcESaIcEE11_M_disjunctEPKc, symObjAddr: 0x1B6B4, symBinAddr: 0x10001D28C, symSize: 0x84 }
  - { offsetInCU: 0x3F70B, offset: 0x3F70B, size: 0x8, addend: 0x0, symName: __ZSt9addressofIKcEPT_RS1_, symObjAddr: 0x1B698, symBinAddr: 0x10001D270, symSize: 0x1C }
  - { offsetInCU: 0x3F753, offset: 0x3F753, size: 0x8, addend: 0x0, symName: __ZSt11__addressofIcEPT_RS0_, symObjAddr: 0x1B684, symBinAddr: 0x10001D25C, symSize: 0x14 }
  - { offsetInCU: 0x3F785, offset: 0x3F785, size: 0x8, addend: 0x0, symName: __ZSt26__unguarded_insertion_sortIN9__gnu_cxx17__normal_iteratorIPSt5tupleIJiiiEESt6vectorIS3_SaIS3_EEEENS0_5__ops15_Iter_less_iterEEvT_SB_T0_, symObjAddr: 0x1B618, symBinAddr: 0x10001D1F0, symSize: 0x6C }
  - { offsetInCU: 0x3F807, offset: 0x3F807, size: 0x8, addend: 0x0, symName: __ZSt16__insertion_sortIN9__gnu_cxx17__normal_iteratorIPSt5tupleIJiiiEESt6vectorIS3_SaIS3_EEEENS0_5__ops15_Iter_less_iterEEvT_SB_T0_, symObjAddr: 0x1B514, symBinAddr: 0x10001D0EC, symSize: 0x104 }
  - { offsetInCU: 0x3F8E6, offset: 0x3F8E6, size: 0x8, addend: 0x0, symName: __ZNSt5tupleIJiiiEEC1EOS0_, symObjAddr: 0x1B4EC, symBinAddr: 0x10001D0C4, symSize: 0x28 }
  - { offsetInCU: 0x3F93F, offset: 0x3F93F, size: 0x8, addend: 0x0, symName: __ZNSt11_Tuple_implILm0EJiiiEEC2EOS0_, symObjAddr: 0x1B4B4, symBinAddr: 0x10001D08C, symSize: 0x38 }
  - { offsetInCU: 0x3F98C, offset: 0x3F98C, size: 0x8, addend: 0x0, symName: __ZNSt11_Tuple_implILm1EJiiEEC2EOS0_, symObjAddr: 0x1B47C, symBinAddr: 0x10001D054, symSize: 0x38 }
  - { offsetInCU: 0x3F99B, offset: 0x3F99B, size: 0x8, addend: 0x0, symName: __ZNK9__gnu_cxx17__normal_iteratorIPSt5tupleIJiiiEESt6vectorIS2_SaIS2_EEEplEl, symObjAddr: 0x1B430, symBinAddr: 0x10001D008, symSize: 0x4C }
  - { offsetInCU: 0x3F9D2, offset: 0x3F9D2, size: 0x8, addend: 0x0, symName: __ZSt27__unguarded_partition_pivotIN9__gnu_cxx17__normal_iteratorIPSt5tupleIJiiiEESt6vectorIS3_SaIS3_EEEENS0_5__ops15_Iter_less_iterEET_SB_SB_T0_, symObjAddr: 0x1B38C, symBinAddr: 0x10001CF64, symSize: 0xA4 }
  - { offsetInCU: 0x3FA41, offset: 0x3FA41, size: 0x8, addend: 0x0, symName: __ZSt14__partial_sortIN9__gnu_cxx17__normal_iteratorIPSt5tupleIJiiiEESt6vectorIS3_SaIS3_EEEENS0_5__ops15_Iter_less_iterEEvT_SB_SB_T0_, symObjAddr: 0x1B340, symBinAddr: 0x10001CF18, symSize: 0x4C }
  - { offsetInCU: 0x3FAB6, offset: 0x3FAB6, size: 0x8, addend: 0x0, symName: __ZN9__gnu_cxxeqIPKSt5tupleIJiiiEESt6vectorIS2_SaIS2_EEEEbRKNS_17__normal_iteratorIT_T0_EESD_, symObjAddr: 0x1B2FC, symBinAddr: 0x10001CED4, symSize: 0x44 }
  - { offsetInCU: 0x3FB07, offset: 0x3FB07, size: 0x8, addend: 0x0, symName: __ZNKSt6vectorISt5tupleIJiiiEESaIS1_EE3endEv, symObjAddr: 0x1B2D4, symBinAddr: 0x10001CEAC, symSize: 0x28 }
  - { offsetInCU: 0x3FB31, offset: 0x3FB31, size: 0x8, addend: 0x0, symName: __ZNKSt6vectorISt5tupleIJiiiEESaIS1_EE5beginEv, symObjAddr: 0x1B2B0, symBinAddr: 0x10001CE88, symSize: 0x24 }
  - { offsetInCU: 0x3FB57, offset: 0x3FB57, size: 0x8, addend: 0x0, symName: __ZSt12__relocate_aIPSt5tupleIJiiiEES2_SaIS1_EET0_T_S5_S4_RT1_, symObjAddr: 0x1B254, symBinAddr: 0x10001CE2C, symSize: 0x5C }
  - { offsetInCU: 0x3FBF7, offset: 0x3FBF7, size: 0x8, addend: 0x0, symName: __ZNK9__gnu_cxx17__normal_iteratorIPSt5tupleIJiiiEESt6vectorIS2_SaIS2_EEE4baseEv, symObjAddr: 0x1B240, symBinAddr: 0x10001CE18, symSize: 0x14 }
  - { offsetInCU: 0x3FC21, offset: 0x3FC21, size: 0x8, addend: 0x0, symName: __ZNKSt6vectorISt5tupleIJiiiEESaIS1_EE8max_sizeEv, symObjAddr: 0x1B220, symBinAddr: 0x10001CDF8, symSize: 0x20 }
  - { offsetInCU: 0x3FCC5, offset: 0x3FCC5, size: 0x8, addend: 0x0, symName: __ZNSt5tupleIJiiiEEC1IJRiS2_S2_ELb1ELb1EEEDpOT_, symObjAddr: 0x1B1B4, symBinAddr: 0x10001CD8C, symSize: 0x6C }
  - { offsetInCU: 0x3FCFD, offset: 0x3FCFD, size: 0x8, addend: 0x0, symName: __ZNSt12_Destroy_auxILb1EE9__destroyIPSt5tupleIJiiiEEEEvT_S5_, symObjAddr: 0x1B19C, symBinAddr: 0x10001CD74, symSize: 0x18 }
  - { offsetInCU: 0x3FD35, offset: 0x3FD35, size: 0x8, addend: 0x0, symName: __ZNSt15__new_allocatorISt5tupleIJiiiEEE10deallocateEPS1_m, symObjAddr: 0x1B160, symBinAddr: 0x10001CD38, symSize: 0x3C }
  - { offsetInCU: 0x3FD7B, offset: 0x3FD7B, size: 0x8, addend: 0x0, symName: __ZSt4copyISt13_Bit_iteratorS0_ET0_T_S2_S1_, symObjAddr: 0x1B0C0, symBinAddr: 0x10001CC98, symSize: 0xA0 }
  - { offsetInCU: 0x3FDDF, offset: 0x3FDDF, size: 0x8, addend: 0x0, symName: __ZNSt6vectorIbSaIbEE15_M_copy_alignedESt19_Bit_const_iteratorS2_St13_Bit_iterator, symObjAddr: 0x1B00C, symBinAddr: 0x10001CBE4, symSize: 0xB4 }
  - { offsetInCU: 0x3FE51, offset: 0x3FE51, size: 0x8, addend: 0x0, symName: __ZNKSt6vectorIbSaIbEE12_M_check_lenEmPKc, symObjAddr: 0x1AF3C, symBinAddr: 0x10001CB14, symSize: 0xD0 }
  - { offsetInCU: 0x3FEAA, offset: 0x3FEAA, size: 0x8, addend: 0x0, symName: __ZSt4fillISt13_Bit_iteratorbEvT_S1_RKT0_, symObjAddr: 0x1AEEC, symBinAddr: 0x10001CAC4, symSize: 0x50 }
  - { offsetInCU: 0x3FF08, offset: 0x3FF08, size: 0x8, addend: 0x0, symName: __ZSt13copy_backwardISt13_Bit_iteratorS0_ET0_T_S2_S1_, symObjAddr: 0x1AE4C, symBinAddr: 0x10001CA24, symSize: 0xA0 }
  - { offsetInCU: 0x3FF6C, offset: 0x3FF6C, size: 0x8, addend: 0x0, symName: __ZNKSt6vectorIbSaIbEE8capacityEv, symObjAddr: 0x1AE08, symBinAddr: 0x10001C9E0, symSize: 0x44 }
  - { offsetInCU: 0x3FF92, offset: 0x3FF92, size: 0x8, addend: 0x0, symName: __ZNSt12_Destroy_auxILb0EE9__destroyIPSt6vectorIbSaIbEEEEvT_S6_, symObjAddr: 0x1ADBC, symBinAddr: 0x10001C994, symSize: 0x4C }
  - { offsetInCU: 0x3FFD4, offset: 0x3FFD4, size: 0x8, addend: 0x0, symName: __ZSt25__uninitialized_default_nIPSt6vectorIbSaIbEEmET_S4_T0_, symObjAddr: 0x1AD90, symBinAddr: 0x10001C968, symSize: 0x2C }
  - { offsetInCU: 0x40068, offset: 0x40068, size: 0x8, addend: 0x0, symName: __ZNSt12_Vector_baseISt6vectorIbSaIbEESaIS2_EE11_M_allocateEm, symObjAddr: 0x1AD40, symBinAddr: 0x10001C918, symSize: 0x50 }
  - { offsetInCU: 0x4012B, offset: 0x4012B, size: 0x8, addend: 0x0, symName: __ZNSt12_Vector_baseISt6vectorIbSaIbEESaIS2_EE17_Vector_impl_dataC2Ev, symObjAddr: 0x1AD14, symBinAddr: 0x10001C8EC, symSize: 0x2C }
  - { offsetInCU: 0x4013D, offset: 0x4013D, size: 0x8, addend: 0x0, symName: __ZSt32__make_move_if_noexcept_iteratorIdSt13move_iteratorIPdEET0_PT_, symObjAddr: 0x1ACF0, symBinAddr: 0x10001C8C8, symSize: 0x24 }
  - { offsetInCU: 0x4017D, offset: 0x4017D, size: 0x8, addend: 0x0, symName: __ZNKSt6vectorIdSaIdEE8max_sizeEv, symObjAddr: 0x1ACD0, symBinAddr: 0x10001C8A8, symSize: 0x20 }
  - { offsetInCU: 0x401A3, offset: 0x401A3, size: 0x8, addend: 0x0, symName: __ZSt8__fill_aIPddEvT_S1_RKT0_, symObjAddr: 0x1ACA0, symBinAddr: 0x10001C878, symSize: 0x30 }
  - { offsetInCU: 0x40201, offset: 0x40201, size: 0x8, addend: 0x0, symName: __ZSt22__copy_move_backward_aILb1EPdS0_ET1_T0_S2_S1_, symObjAddr: 0x1AC40, symBinAddr: 0x10001C818, symSize: 0x60 }
  - { offsetInCU: 0x40269, offset: 0x40269, size: 0x8, addend: 0x0, symName: __ZSt22__uninitialized_copy_aISt13move_iteratorIPdES1_dET0_T_S4_S3_RSaIT1_E, symObjAddr: 0x1AC10, symBinAddr: 0x10001C7E8, symSize: 0x30 }
  - { offsetInCU: 0x402D9, offset: 0x402D9, size: 0x8, addend: 0x0, symName: __ZSt18make_move_iteratorIPdESt13move_iteratorIT_ES2_, symObjAddr: 0x1ABE4, symBinAddr: 0x10001C7BC, symSize: 0x2C }
  - { offsetInCU: 0x40310, offset: 0x40310, size: 0x8, addend: 0x0, symName: __ZNSt6vectorIdSaIdEE16_Temporary_value6_M_ptrEv, symObjAddr: 0x1ABC4, symBinAddr: 0x10001C79C, symSize: 0x20 }
  - { offsetInCU: 0x4038E, offset: 0x4038E, size: 0x8, addend: 0x0, symName: __ZNSt6vectorIdSaIdEE16_Temporary_value8_StorageD1Ev, symObjAddr: 0x1ABB0, symBinAddr: 0x10001C788, symSize: 0x14 }
  - { offsetInCU: 0x403CE, offset: 0x403CE, size: 0x8, addend: 0x0, symName: __ZNSt6vectorIdSaIdEE16_Temporary_value8_StorageC1Ev, symObjAddr: 0x1AB94, symBinAddr: 0x10001C76C, symSize: 0x1C }
  - { offsetInCU: 0x403C0, offset: 0x403C0, size: 0x8, addend: 0x0, symName: __ZNSt10_Head_baseILm1EdLb0EE7_M_headERS0_, symObjAddr: 0x1AB80, symBinAddr: 0x10001C758, symSize: 0x14 }
  - { offsetInCU: 0x403E9, offset: 0x403E9, size: 0x8, addend: 0x0, symName: __ZNSt10_Head_baseILm0ESt6vectorIdSaIdEELb0EE7_M_headERS3_, symObjAddr: 0x1AB6C, symBinAddr: 0x10001C744, symSize: 0x14 }
  - { offsetInCU: 0x40443, offset: 0x40443, size: 0x8, addend: 0x0, symName: __ZNSt12_Vector_baseIP4NodeSaIS1_EE17_Vector_impl_data12_M_copy_dataERKS4_, symObjAddr: 0x1AB24, symBinAddr: 0x10001C6FC, symSize: 0x48 }
  - { offsetInCU: 0x40479, offset: 0x40479, size: 0x8, addend: 0x0, symName: __ZSt32__make_move_if_noexcept_iteratorIiSt13move_iteratorIPiEET0_PT_, symObjAddr: 0x1AB00, symBinAddr: 0x10001C6D8, symSize: 0x24 }
  - { offsetInCU: 0x404B5, offset: 0x404B5, size: 0x8, addend: 0x0, symName: __ZSt8__fill_aIPiiEvT_S1_RKT0_, symObjAddr: 0x1AAD0, symBinAddr: 0x10001C6A8, symSize: 0x30 }
  - { offsetInCU: 0x40513, offset: 0x40513, size: 0x8, addend: 0x0, symName: __ZSt22__copy_move_backward_aILb1EPiS0_ET1_T0_S2_S1_, symObjAddr: 0x1AA70, symBinAddr: 0x10001C648, symSize: 0x60 }
  - { offsetInCU: 0x4057B, offset: 0x4057B, size: 0x8, addend: 0x0, symName: __ZSt22__uninitialized_copy_aISt13move_iteratorIPiES1_iET0_T_S4_S3_RSaIT1_E, symObjAddr: 0x1AA40, symBinAddr: 0x10001C618, symSize: 0x30 }
  - { offsetInCU: 0x405EB, offset: 0x405EB, size: 0x8, addend: 0x0, symName: __ZSt18make_move_iteratorIPiESt13move_iteratorIT_ES2_, symObjAddr: 0x1AA14, symBinAddr: 0x10001C5EC, symSize: 0x2C }
  - { offsetInCU: 0x4064F, offset: 0x4064F, size: 0x8, addend: 0x0, symName: __ZNSt6vectorIiSaIiEE16_Temporary_value6_M_ptrEv, symObjAddr: 0x1A9F4, symBinAddr: 0x10001C5CC, symSize: 0x20 }
  - { offsetInCU: 0x406CD, offset: 0x406CD, size: 0x8, addend: 0x0, symName: __ZNSt6vectorIiSaIiEE16_Temporary_value8_StorageD1Ev, symObjAddr: 0x1A9E0, symBinAddr: 0x10001C5B8, symSize: 0x14 }
  - { offsetInCU: 0x4070D, offset: 0x4070D, size: 0x8, addend: 0x0, symName: __ZNSt6vectorIiSaIiEE16_Temporary_value8_StorageC1Ev, symObjAddr: 0x1A9C4, symBinAddr: 0x10001C59C, symSize: 0x1C }
  - { offsetInCU: 0x40756, offset: 0x40756, size: 0x8, addend: 0x0, symName: __ZNSt10_Head_baseILm1EdLb0EEC2IRdEEOT_, symObjAddr: 0x1A994, symBinAddr: 0x10001C56C, symSize: 0x30 }
  - { offsetInCU: 0x407CE, offset: 0x407CE, size: 0x8, addend: 0x0, symName: __ZNSt6chrono8durationIdSt5ratioILl1ELl1EEEC1IdvEERKT_, symObjAddr: 0x1A96C, symBinAddr: 0x10001C544, symSize: 0x28 }
  - { offsetInCU: 0x407D4, offset: 0x407D4, size: 0x8, addend: 0x0, symName: __ZNSt5dequeIdSaIdEE17_M_reallocate_mapEmb, symObjAddr: 0x1A728, symBinAddr: 0x10001C300, symSize: 0x244 }
  - { offsetInCU: 0x40885, offset: 0x40885, size: 0x8, addend: 0x0, symName: __ZNSt5dequeIdSaIdEE11_S_max_sizeERKS0_, symObjAddr: 0x1A6D4, symBinAddr: 0x10001C2AC, symSize: 0x54 }
  - { offsetInCU: 0x40982, offset: 0x40982, size: 0x8, addend: 0x0, symName: __ZNSt15__new_allocatorIPdE10deallocateEPS0_m, symObjAddr: 0x1A6A4, symBinAddr: 0x10001C27C, symSize: 0x30 }
  - { offsetInCU: 0x40A0B, offset: 0x40A0B, size: 0x8, addend: 0x0, symName: __ZNSt15__new_allocatorIPdED2Ev, symObjAddr: 0x1A690, symBinAddr: 0x10001C268, symSize: 0x14 }
  - { offsetInCU: 0x40A3A, offset: 0x40A3A, size: 0x8, addend: 0x0, symName: __ZNKSt11_Deque_baseIdSaIdEE19_M_get_Tp_allocatorEv, symObjAddr: 0x1A67C, symBinAddr: 0x10001C254, symSize: 0x14 }
  - { offsetInCU: 0x40AC0, offset: 0x40AC0, size: 0x8, addend: 0x0, symName: __ZNSt15_Deque_iteratorIdRdPdEC1Ev, symObjAddr: 0x1A648, symBinAddr: 0x10001C220, symSize: 0x34 }
  - { offsetInCU: 0x40AC4, offset: 0x40AC4, size: 0x8, addend: 0x0, symName: __ZNSt20__uninitialized_copyILb1EE13__uninit_copyIN9__gnu_cxx17__normal_iteratorIPKdSt6vectorIdSaIdEEEEPdEET0_T_SC_SB_, symObjAddr: 0x1A61C, symBinAddr: 0x10001C1F4, symSize: 0x2C }
  - { offsetInCU: 0x40B1F, offset: 0x40B1F, size: 0x8, addend: 0x0, symName: __ZSt20uninitialized_fill_nIPdmdET_S1_T0_RKT1_, symObjAddr: 0x1A5E8, symBinAddr: 0x10001C1C0, symSize: 0x34 }
  - { offsetInCU: 0x40B97, offset: 0x40B97, size: 0x8, addend: 0x0, symName: __ZNSt20__uninitialized_copyILb1EE13__uninit_copyIPdS2_EET0_T_S4_S3_, symObjAddr: 0x1A5BC, symBinAddr: 0x10001C194, symSize: 0x2C }
  - { offsetInCU: 0x40BF2, offset: 0x40BF2, size: 0x8, addend: 0x0, symName: __ZSt12__niter_wrapIPdET_RKS1_S1_, symObjAddr: 0x1A5A4, symBinAddr: 0x10001C17C, symSize: 0x18 }
  - { offsetInCU: 0x40C2E, offset: 0x40C2E, size: 0x8, addend: 0x0, symName: __ZSt14__copy_move_a1ILb0EPdS0_ET1_T0_S2_S1_, symObjAddr: 0x1A578, symBinAddr: 0x10001C150, symSize: 0x2C }
  - { offsetInCU: 0x40C96, offset: 0x40C96, size: 0x8, addend: 0x0, symName: __ZSt12__niter_baseIPdET_S1_, symObjAddr: 0x1A564, symBinAddr: 0x10001C13C, symSize: 0x14 }
  - { offsetInCU: 0x40CC9, offset: 0x40CC9, size: 0x8, addend: 0x0, symName: __ZNSt12_Destroy_auxILb1EE9__destroyIN9__gnu_cxx17__normal_iteratorIPdSt6vectorIdSaIdEEEEEEvT_S9_, symObjAddr: 0x1A54C, symBinAddr: 0x10001C124, symSize: 0x18 }
  - { offsetInCU: 0x40CFD, offset: 0x40CFD, size: 0x8, addend: 0x0, symName: __ZSt12__niter_wrapIN9__gnu_cxx17__normal_iteratorIPdSt6vectorIdSaIdEEEES2_ET_S7_T0_, symObjAddr: 0x1A504, symBinAddr: 0x10001C0DC, symSize: 0x48 }
  - { offsetInCU: 0x40D4A, offset: 0x40D4A, size: 0x8, addend: 0x0, symName: __ZSt14__copy_move_a1ILb0EPKdPdET1_T0_S4_S3_, symObjAddr: 0x1A4D8, symBinAddr: 0x10001C0B0, symSize: 0x2C }
  - { offsetInCU: 0x40DB2, offset: 0x40DB2, size: 0x8, addend: 0x0, symName: __ZSt12__niter_baseIPdSt6vectorIdSaIdEEET_N9__gnu_cxx17__normal_iteratorIS4_T0_EE, symObjAddr: 0x1A4B8, symBinAddr: 0x10001C090, symSize: 0x20 }
  - { offsetInCU: 0x40DEE, offset: 0x40DEE, size: 0x8, addend: 0x0, symName: __ZSt12__niter_baseIPKdSt6vectorIdSaIdEEET_N9__gnu_cxx17__normal_iteratorIS5_T0_EE, symObjAddr: 0x1A498, symBinAddr: 0x10001C070, symSize: 0x20 }
  - { offsetInCU: 0x40E2A, offset: 0x40E2A, size: 0x8, addend: 0x0, symName: __ZNSt12_Destroy_auxILb1EE9__destroyIPdEEvT_S3_, symObjAddr: 0x1A480, symBinAddr: 0x10001C058, symSize: 0x18 }
  - { offsetInCU: 0x40E82, offset: 0x40E82, size: 0x8, addend: 0x0, symName: __ZSt25__uninitialized_default_nIPdmET_S1_T0_, symObjAddr: 0x1A454, symBinAddr: 0x10001C02C, symSize: 0x2C }
  - { offsetInCU: 0x40F11, offset: 0x40F11, size: 0x8, addend: 0x0, symName: __ZNSt12_Destroy_auxILb1EE9__destroyIPSt4pairIiiEEEvT_S5_, symObjAddr: 0x1A43C, symBinAddr: 0x10001C014, symSize: 0x18 }
  - { offsetInCU: 0x40F45, offset: 0x40F45, size: 0x8, addend: 0x0, symName: __ZSt20uninitialized_fill_nIPSt4pairIiiEmS1_ET_S3_T0_RKT1_, symObjAddr: 0x1A40C, symBinAddr: 0x10001BFE4, symSize: 0x30 }
  - { offsetInCU: 0x40FF3, offset: 0x40FF3, size: 0x8, addend: 0x0, symName: __ZNSt12_Vector_baseISt4pairIiiESaIS1_EE11_M_allocateEm, symObjAddr: 0x1A3BC, symBinAddr: 0x10001BF94, symSize: 0x50 }
  - { offsetInCU: 0x410B0, offset: 0x410B0, size: 0x8, addend: 0x0, symName: __ZNSt12_Vector_baseISt4pairIiiESaIS1_EE17_Vector_impl_dataC2Ev, symObjAddr: 0x1A390, symBinAddr: 0x10001BF68, symSize: 0x2C }
  - { offsetInCU: 0x410C8, offset: 0x410C8, size: 0x8, addend: 0x0, symName: __ZNSt12_Destroy_auxILb0EE9__destroyIPSt6vectorIxSaIxEEEEvT_S6_, symObjAddr: 0x1A344, symBinAddr: 0x10001BF1C, symSize: 0x4C }
  - { offsetInCU: 0x4110A, offset: 0x4110A, size: 0x8, addend: 0x0, symName: __ZSt20uninitialized_fill_nIPSt6vectorIxSaIxEEmS2_ET_S4_T0_RKT1_, symObjAddr: 0x1A314, symBinAddr: 0x10001BEEC, symSize: 0x30 }
  - { offsetInCU: 0x411B8, offset: 0x411B8, size: 0x8, addend: 0x0, symName: __ZNSt12_Vector_baseISt6vectorIxSaIxEESaIS2_EE11_M_allocateEm, symObjAddr: 0x1A2C4, symBinAddr: 0x10001BE9C, symSize: 0x50 }
  - { offsetInCU: 0x4127B, offset: 0x4127B, size: 0x8, addend: 0x0, symName: __ZNSt12_Vector_baseISt6vectorIxSaIxEESaIS2_EE17_Vector_impl_dataC2Ev, symObjAddr: 0x1A298, symBinAddr: 0x10001BE70, symSize: 0x2C }
  - { offsetInCU: 0x4128D, offset: 0x4128D, size: 0x8, addend: 0x0, symName: __ZNSt12_Destroy_auxILb1EE9__destroyIPxEEvT_S3_, symObjAddr: 0x1A280, symBinAddr: 0x10001BE58, symSize: 0x18 }
  - { offsetInCU: 0x412C1, offset: 0x412C1, size: 0x8, addend: 0x0, symName: __ZSt20uninitialized_fill_nIPxmxET_S1_T0_RKT1_, symObjAddr: 0x1A24C, symBinAddr: 0x10001BE24, symSize: 0x34 }
  - { offsetInCU: 0x4136F, offset: 0x4136F, size: 0x8, addend: 0x0, symName: __ZNSt12_Vector_baseIxSaIxEE11_M_allocateEm, symObjAddr: 0x1A1FC, symBinAddr: 0x10001BDD4, symSize: 0x50 }
  - { offsetInCU: 0x41420, offset: 0x41420, size: 0x8, addend: 0x0, symName: __ZNSt12_Vector_baseIxSaIxEE17_Vector_impl_dataC2Ev, symObjAddr: 0x1A1D0, symBinAddr: 0x10001BDA8, symSize: 0x2C }
  - { offsetInCU: 0x41444, offset: 0x41444, size: 0x8, addend: 0x0, symName: __ZSt20uninitialized_fill_nIPimiET_S1_T0_RKT1_, symObjAddr: 0x1A19C, symBinAddr: 0x10001BD74, symSize: 0x34 }
  - { offsetInCU: 0x41507, offset: 0x41507, size: 0x8, addend: 0x0, symName: __ZNSt23mersenne_twister_engineIjLm32ELm624ELm397ELm31ELj2567483615ELm11ELj4294967295ELm7ELj2636928640ELm15ELj4022730752ELm18ELj1812433253EE11_M_gen_randEv, symObjAddr: 0x19FDC, symBinAddr: 0x10001BBB4, symSize: 0x1C0 }
  - { offsetInCU: 0x41658, offset: 0x41658, size: 0x8, addend: 0x0, symName: __ZNSt4pairImmEC1ImmLb1EEEOT_OT0_, symObjAddr: 0x19F94, symBinAddr: 0x10001BB6C, symSize: 0x48 }
  - { offsetInCU: 0x41681, offset: 0x41681, size: 0x8, addend: 0x0, symName: __ZNSt8__detail4_ModIjLj624ELj1ELj0ELb1ELb1EE6__calcEj, symObjAddr: 0x19F5C, symBinAddr: 0x10001BB34, symSize: 0x38 }
  - { offsetInCU: 0x416BA, offset: 0x416BA, size: 0x8, addend: 0x0, symName: __ZNSt8__detail4_ModIjLj0ELj1ELj0ELb1ELb0EE6__calcEj, symObjAddr: 0x19F40, symBinAddr: 0x10001BB18, symSize: 0x1C }
  - { offsetInCU: 0x416F3, offset: 0x416F3, size: 0x8, addend: 0x0, symName: __ZSt12__relocate_aIPiS0_SaIiEET0_T_S3_S2_RT1_, symObjAddr: 0x19EE4, symBinAddr: 0x10001BABC, symSize: 0x5C }
  - { offsetInCU: 0x4176B, offset: 0x4176B, size: 0x8, addend: 0x0, symName: __ZSt12__equal_aux1IPKiS1_EbT_S2_T0_, symObjAddr: 0x19EB0, symBinAddr: 0x10001BA88, symSize: 0x34 }
  - { offsetInCU: 0x417DA, offset: 0x417DA, size: 0x8, addend: 0x0, symName: __ZNSt12_Destroy_auxILb0EE9__destroyIPSt6vectorIiSaIiEEEEvT_S6_, symObjAddr: 0x19E64, symBinAddr: 0x10001BA3C, symSize: 0x4C }
  - { offsetInCU: 0x4181C, offset: 0x4181C, size: 0x8, addend: 0x0, symName: __ZSt20uninitialized_fill_nIPSt6vectorIiSaIiEEmS2_ET_S4_T0_RKT1_, symObjAddr: 0x19E34, symBinAddr: 0x10001BA0C, symSize: 0x30 }
  - { offsetInCU: 0x418CA, offset: 0x418CA, size: 0x8, addend: 0x0, symName: __ZNSt12_Vector_baseISt6vectorIiSaIiEESaIS2_EE11_M_allocateEm, symObjAddr: 0x19DE4, symBinAddr: 0x10001B9BC, symSize: 0x50 }
  - { offsetInCU: 0x4198D, offset: 0x4198D, size: 0x8, addend: 0x0, symName: __ZNSt12_Vector_baseISt6vectorIiSaIiEESaIS2_EE17_Vector_impl_dataC2Ev, symObjAddr: 0x19DB8, symBinAddr: 0x10001B990, symSize: 0x2C }
  - { offsetInCU: 0x4199F, offset: 0x4199F, size: 0x8, addend: 0x0, symName: __ZSt26__unguarded_insertion_sortIN9__gnu_cxx17__normal_iteratorIPiSt6vectorIiSaIiEEEENS0_5__ops15_Iter_comp_iterIZ30shortest_processing_time_ordervEUliiE_EEEvT_SB_T0_, symObjAddr: 0x19D4C, symBinAddr: 0x10001B924, symSize: 0x6C }
  - { offsetInCU: 0x41A21, offset: 0x41A21, size: 0x8, addend: 0x0, symName: __ZSt16__insertion_sortIN9__gnu_cxx17__normal_iteratorIPiSt6vectorIiSaIiEEEENS0_5__ops15_Iter_comp_iterIZ30shortest_processing_time_ordervEUliiE_EEEvT_SB_T0_, symObjAddr: 0x19C58, symBinAddr: 0x10001B830, symSize: 0xF4 }
  - { offsetInCU: 0x41AC7, offset: 0x41AC7, size: 0x8, addend: 0x0, symName: __ZSt27__unguarded_partition_pivotIN9__gnu_cxx17__normal_iteratorIPiSt6vectorIiSaIiEEEENS0_5__ops15_Iter_comp_iterIZ30shortest_processing_time_ordervEUliiE_EEET_SB_SB_T0_, symObjAddr: 0x19BBC, symBinAddr: 0x10001B794, symSize: 0x9C }
  - { offsetInCU: 0x41B36, offset: 0x41B36, size: 0x8, addend: 0x0, symName: __ZSt14__partial_sortIN9__gnu_cxx17__normal_iteratorIPiSt6vectorIiSaIiEEEENS0_5__ops15_Iter_comp_iterIZ30shortest_processing_time_ordervEUliiE_EEEvT_SB_SB_T0_, symObjAddr: 0x19B70, symBinAddr: 0x10001B748, symSize: 0x4C }
  - { offsetInCU: 0x41BA5, offset: 0x41BA5, size: 0x8, addend: 0x0, symName: __ZSt26__unguarded_insertion_sortIN9__gnu_cxx17__normal_iteratorIPiSt6vectorIiSaIiEEEENS0_5__ops15_Iter_comp_iterIZ15greedy_backwardvEUliiE_EEEvT_SB_T0_, symObjAddr: 0x19B04, symBinAddr: 0x10001B6DC, symSize: 0x6C }
  - { offsetInCU: 0x41C27, offset: 0x41C27, size: 0x8, addend: 0x0, symName: __ZSt16__insertion_sortIN9__gnu_cxx17__normal_iteratorIPiSt6vectorIiSaIiEEEENS0_5__ops15_Iter_comp_iterIZ15greedy_backwardvEUliiE_EEEvT_SB_T0_, symObjAddr: 0x19A10, symBinAddr: 0x10001B5E8, symSize: 0xF4 }
  - { offsetInCU: 0x41CCD, offset: 0x41CCD, size: 0x8, addend: 0x0, symName: __ZSt27__unguarded_partition_pivotIN9__gnu_cxx17__normal_iteratorIPiSt6vectorIiSaIiEEEENS0_5__ops15_Iter_comp_iterIZ15greedy_backwardvEUliiE_EEET_SB_SB_T0_, symObjAddr: 0x19974, symBinAddr: 0x10001B54C, symSize: 0x9C }
  - { offsetInCU: 0x41D3C, offset: 0x41D3C, size: 0x8, addend: 0x0, symName: __ZSt14__partial_sortIN9__gnu_cxx17__normal_iteratorIPiSt6vectorIiSaIiEEEENS0_5__ops15_Iter_comp_iterIZ15greedy_backwardvEUliiE_EEEvT_SB_SB_T0_, symObjAddr: 0x19928, symBinAddr: 0x10001B500, symSize: 0x4C }
  - { offsetInCU: 0x41DAB, offset: 0x41DAB, size: 0x8, addend: 0x0, symName: __ZNSt20__uninitialized_copyILb1EE13__uninit_copyIPiS2_EET0_T_S4_S3_, symObjAddr: 0x198FC, symBinAddr: 0x10001B4D4, symSize: 0x2C }
  - { offsetInCU: 0x41E06, offset: 0x41E06, size: 0x8, addend: 0x0, symName: __ZSt12__niter_wrapIPiET_RKS1_S1_, symObjAddr: 0x198E4, symBinAddr: 0x10001B4BC, symSize: 0x18 }
  - { offsetInCU: 0x41E42, offset: 0x41E42, size: 0x8, addend: 0x0, symName: __ZSt14__copy_move_a1ILb0EPiS0_ET1_T0_S2_S1_, symObjAddr: 0x198B8, symBinAddr: 0x10001B490, symSize: 0x2C }
  - { offsetInCU: 0x41EAA, offset: 0x41EAA, size: 0x8, addend: 0x0, symName: __ZSt12__niter_baseIPiET_S1_, symObjAddr: 0x198A4, symBinAddr: 0x10001B47C, symSize: 0x14 }
  - { offsetInCU: 0x41EDD, offset: 0x41EDD, size: 0x8, addend: 0x0, symName: __ZNSt12_Destroy_auxILb1EE9__destroyIN9__gnu_cxx17__normal_iteratorIPiSt6vectorIiSaIiEEEEEEvT_S9_, symObjAddr: 0x1988C, symBinAddr: 0x10001B464, symSize: 0x18 }
  - { offsetInCU: 0x41F11, offset: 0x41F11, size: 0x8, addend: 0x0, symName: __ZSt12__niter_wrapIN9__gnu_cxx17__normal_iteratorIPiSt6vectorIiSaIiEEEES2_ET_S7_T0_, symObjAddr: 0x19844, symBinAddr: 0x10001B41C, symSize: 0x48 }
  - { offsetInCU: 0x41F5E, offset: 0x41F5E, size: 0x8, addend: 0x0, symName: __ZSt14__copy_move_a1ILb0EPKiPiET1_T0_S4_S3_, symObjAddr: 0x19818, symBinAddr: 0x10001B3F0, symSize: 0x2C }
  - { offsetInCU: 0x41FC6, offset: 0x41FC6, size: 0x8, addend: 0x0, symName: __ZSt12__niter_baseIPiSt6vectorIiSaIiEEET_N9__gnu_cxx17__normal_iteratorIS4_T0_EE, symObjAddr: 0x197F8, symBinAddr: 0x10001B3D0, symSize: 0x20 }
  - { offsetInCU: 0x42002, offset: 0x42002, size: 0x8, addend: 0x0, symName: __ZSt12__niter_baseIPKiSt6vectorIiSaIiEEET_N9__gnu_cxx17__normal_iteratorIS5_T0_EE, symObjAddr: 0x197D8, symBinAddr: 0x10001B3B0, symSize: 0x20 }
  - { offsetInCU: 0x42062, offset: 0x42062, size: 0x8, addend: 0x0, symName: __ZNSt20__uninitialized_copyILb1EE13__uninit_copyIN9__gnu_cxx17__normal_iteratorIPKiSt6vectorIiSaIiEEEEPiEET0_T_SC_SB_, symObjAddr: 0x197AC, symBinAddr: 0x10001B384, symSize: 0x2C }
  - { offsetInCU: 0x420BD, offset: 0x420BD, size: 0x8, addend: 0x0, symName: __ZSt26__unguarded_insertion_sortIN9__gnu_cxx17__normal_iteratorIPiSt6vectorIiSaIiEEEENS0_5__ops15_Iter_comp_iterIZ15greedy_fordwardvEUliiE_EEEvT_SB_T0_, symObjAddr: 0x19740, symBinAddr: 0x10001B318, symSize: 0x6C }
  - { offsetInCU: 0x4213F, offset: 0x4213F, size: 0x8, addend: 0x0, symName: __ZSt16__insertion_sortIN9__gnu_cxx17__normal_iteratorIPiSt6vectorIiSaIiEEEENS0_5__ops15_Iter_comp_iterIZ15greedy_fordwardvEUliiE_EEEvT_SB_T0_, symObjAddr: 0x1964C, symBinAddr: 0x10001B224, symSize: 0xF4 }
  - { offsetInCU: 0x421E5, offset: 0x421E5, size: 0x8, addend: 0x0, symName: __ZSt27__unguarded_partition_pivotIN9__gnu_cxx17__normal_iteratorIPiSt6vectorIiSaIiEEEENS0_5__ops15_Iter_comp_iterIZ15greedy_fordwardvEUliiE_EEET_SB_SB_T0_, symObjAddr: 0x195B0, symBinAddr: 0x10001B188, symSize: 0x9C }
  - { offsetInCU: 0x42254, offset: 0x42254, size: 0x8, addend: 0x0, symName: __ZSt14__partial_sortIN9__gnu_cxx17__normal_iteratorIPiSt6vectorIiSaIiEEEENS0_5__ops15_Iter_comp_iterIZ15greedy_fordwardvEUliiE_EEEvT_SB_SB_T0_, symObjAddr: 0x19564, symBinAddr: 0x10001B13C, symSize: 0x4C }
  - { offsetInCU: 0x422C3, offset: 0x422C3, size: 0x8, addend: 0x0, symName: __ZNSt12_Destroy_auxILb1EE9__destroyIPiEEvT_S3_, symObjAddr: 0x1954C, symBinAddr: 0x10001B124, symSize: 0x18 }
  - { offsetInCU: 0x422F7, offset: 0x422F7, size: 0x8, addend: 0x0, symName: __ZSt25__uninitialized_default_nIPimET_S1_T0_, symObjAddr: 0x19520, symBinAddr: 0x10001B0F8, symSize: 0x2C }
  - { offsetInCU: 0x4236F, offset: 0x4236F, size: 0x8, addend: 0x0, symName: __ZNSt13_Bvector_baseISaIbEE18_Bvector_impl_data8_M_resetEv, symObjAddr: 0x194E0, symBinAddr: 0x10001B0B8, symSize: 0x40 }
  - { offsetInCU: 0x42399, offset: 0x42399, size: 0x8, addend: 0x0, symName: __ZNKSt13_Bvector_baseISaIbEE13_Bvector_impl11_M_end_addrEv, symObjAddr: 0x194A0, symBinAddr: 0x10001B078, symSize: 0x40 }
  - { offsetInCU: 0x423BF, offset: 0x423BF, size: 0x8, addend: 0x0, symName: __ZSt11__addressofImEPT_RS0_, symObjAddr: 0x1948C, symBinAddr: 0x10001B064, symSize: 0x14 }
  - { offsetInCU: 0x423F1, offset: 0x423F1, size: 0x8, addend: 0x0, symName: __ZNSt13_Bvector_baseISaIbEE8_S_nwordEm, symObjAddr: 0x19470, symBinAddr: 0x10001B048, symSize: 0x1C }
  - { offsetInCU: 0x4241F, offset: 0x4241F, size: 0x8, addend: 0x0, symName: __ZNSt13_Bvector_baseISaIbEE11_M_allocateEm, symObjAddr: 0x19420, symBinAddr: 0x10001AFF8, symSize: 0x50 }
  - { offsetInCU: 0x424F1, offset: 0x424F1, size: 0x8, addend: 0x0, symName: __ZNSt13_Bvector_baseISaIbEE13_Bvector_implC1ERKSaImE, symObjAddr: 0x193D4, symBinAddr: 0x10001AFAC, symSize: 0x4C }
  - { offsetInCU: 0x4256F, offset: 0x4256F, size: 0x8, addend: 0x0, symName: __ZSt4moveIRSaIyEEONSt16remove_referenceIT_E4typeEOS3_, symObjAddr: 0x193C0, symBinAddr: 0x10001AF98, symSize: 0x14 }
  - { offsetInCU: 0x425A5, offset: 0x425A5, size: 0x8, addend: 0x0, symName: __ZNSt12_Vector_baseIySaIyEE17_Vector_impl_data12_M_copy_dataERKS2_, symObjAddr: 0x19378, symBinAddr: 0x10001AF50, symSize: 0x48 }
  - { offsetInCU: 0x42627, offset: 0x42627, size: 0x8, addend: 0x0, symName: __ZNSt12_Vector_baseIySaIyEEC2ERKS0_, symObjAddr: 0x19350, symBinAddr: 0x10001AF28, symSize: 0x28 }
  - { offsetInCU: 0x42697, offset: 0x42697, size: 0x8, addend: 0x0, symName: __ZSt14__relocate_a_1IP4NodeS1_ENSt9enable_ifIXsrSt24__is_bitwise_relocatableIT_vE5valueEPS4_E4typeES6_S6_S6_RSaIT0_E, symObjAddr: 0x192EC, symBinAddr: 0x10001AEC4, symSize: 0x64 }
  - { offsetInCU: 0x42717, offset: 0x42717, size: 0x8, addend: 0x0, symName: __ZSt12__niter_baseIPP4NodeET_S3_, symObjAddr: 0x192D8, symBinAddr: 0x10001AEB0, symSize: 0x14 }
  - { offsetInCU: 0x4274E, offset: 0x4274E, size: 0x8, addend: 0x0, symName: __ZNSt15__new_allocatorIP4NodeE8allocateEmPKv, symObjAddr: 0x1925C, symBinAddr: 0x10001AE34, symSize: 0x7C }
  - { offsetInCU: 0x427EC, offset: 0x427EC, size: 0x8, addend: 0x0, symName: __ZNSt12_Destroy_auxILb1EE9__destroyIPP4NodeEEvT_S5_, symObjAddr: 0x19244, symBinAddr: 0x10001AE1C, symSize: 0x18 }
  - { offsetInCU: 0x42824, offset: 0x42824, size: 0x8, addend: 0x0, symName: __ZNSt15__new_allocatorIP4NodeE10deallocateEPS1_m, symObjAddr: 0x19214, symBinAddr: 0x10001ADEC, symSize: 0x30 }
  - { offsetInCU: 0x4286A, offset: 0x4286A, size: 0x8, addend: 0x0, symName: __ZNSt12_Destroy_auxILb1EE9__destroyIPyEEvT_S3_, symObjAddr: 0x191FC, symBinAddr: 0x10001ADD4, symSize: 0x18 }
  - { offsetInCU: 0x4289E, offset: 0x4289E, size: 0x8, addend: 0x0, symName: __ZSt12__relocate_aIPyS0_SaIyEET0_T_S3_S2_RT1_, symObjAddr: 0x191A0, symBinAddr: 0x10001AD78, symSize: 0x5C }
  - { offsetInCU: 0x4291A, offset: 0x4291A, size: 0x8, addend: 0x0, symName: __ZNSt15__new_allocatorIyE10deallocateEPym, symObjAddr: 0x19170, symBinAddr: 0x10001AD48, symSize: 0x30 }
  - { offsetInCU: 0x42984, offset: 0x42984, size: 0x8, addend: 0x0, symName: __ZSt25__uninitialized_default_nIPymET_S1_T0_, symObjAddr: 0x19144, symBinAddr: 0x10001AD1C, symSize: 0x2C }
  - { offsetInCU: 0x429E6, offset: 0x429E6, size: 0x8, addend: 0x0, symName: __ZNKSt12_Vector_baseIySaIyEE19_M_get_Tp_allocatorEv, symObjAddr: 0x19130, symBinAddr: 0x10001AD08, symSize: 0x14 }
  - { offsetInCU: 0x42A0C, offset: 0x42A0C, size: 0x8, addend: 0x0, symName: __ZNSt6vectorIySaIyEE11_S_max_sizeERKS0_, symObjAddr: 0x190DC, symBinAddr: 0x10001ACB4, symSize: 0x54 }
  - { offsetInCU: 0x42AC7, offset: 0x42AC7, size: 0x8, addend: 0x0, symName: __ZNSt8_Rb_treeIiiSt9_IdentityIiESt4lessIiESaIiEE11_M_put_nodeEPSt13_Rb_tree_nodeIiE, symObjAddr: 0x19090, symBinAddr: 0x10001AC68, symSize: 0x4C }
  - { offsetInCU: 0x42B38, offset: 0x42B38, size: 0x8, addend: 0x0, symName: __ZNSt8_Rb_treeIiiSt9_IdentityIiESt4lessIiESaIiEE15_M_destroy_nodeEPSt13_Rb_tree_nodeIiE, symObjAddr: 0x19038, symBinAddr: 0x10001AC10, symSize: 0x58 }
  - { offsetInCU: 0x42BCD, offset: 0x42BCD, size: 0x8, addend: 0x0, symName: __ZNSt15__new_allocatorIdE10deallocateEPdm, symObjAddr: 0x19008, symBinAddr: 0x10001ABE0, symSize: 0x30 }
  - { offsetInCU: 0x42C17, offset: 0x42C17, size: 0x8, addend: 0x0, symName: __ZNSt15__new_allocatorIiE10deallocateEPim, symObjAddr: 0x18FD8, symBinAddr: 0x10001ABB0, symSize: 0x30 }
  - { offsetInCU: 0x42C66, offset: 0x42C66, size: 0x8, addend: 0x0, symName: __ZNSt7__cxx1112basic_stringIcSt11char_traitsIcESaIcEE9_M_mutateEmmPKcm, symObjAddr: 0x18E80, symBinAddr: 0x10001AA58, symSize: 0x158 }
  - { offsetInCU: 0x42D03, offset: 0x42D03, size: 0x8, addend: 0x0, symName: __ZNSt7__cxx1112basic_stringIcSt11char_traitsIcESaIcEE7_S_moveEPcPKcm, symObjAddr: 0x18E34, symBinAddr: 0x10001AA0C, symSize: 0x4C }
  - { offsetInCU: 0x42D77, offset: 0x42D77, size: 0x8, addend: 0x0, symName: __ZNSt15__new_allocatorIcE10deallocateEPcm, symObjAddr: 0x18E0C, symBinAddr: 0x10001A9E4, symSize: 0x28 }
  - { offsetInCU: 0x42DED, offset: 0x42DED, size: 0x8, addend: 0x0, symName: __ZSt13__countl_zeroImEiT_, symObjAddr: 0x18DB8, symBinAddr: 0x10001A990, symSize: 0x54 }
  - { offsetInCU: 0x42E86, offset: 0x42E86, size: 0x8, addend: 0x0, symName: __ZNSt15__new_allocatorImE10deallocateEPmm, symObjAddr: 0x18D88, symBinAddr: 0x10001A960, symSize: 0x30 }
  - { offsetInCU: 0x42ED5, offset: 0x42ED5, size: 0x8, addend: 0x0, symName: __ZNSt7__cxx1112basic_stringIcSt11char_traitsIcESaIcEE10_M_replaceEmmPKcm, symObjAddr: 0x18BFC, symBinAddr: 0x10001A7D4, symSize: 0x18C }
  - { offsetInCU: 0x42FC6, offset: 0x42FC6, size: 0x8, addend: 0x0, symName: __ZNSt19__ptr_traits_ptr_toIPKcS0_Lb0EE10pointer_toERS0_, symObjAddr: 0x18BE0, symBinAddr: 0x10001A7B8, symSize: 0x1C }
  - { offsetInCU: 0x42FF3, offset: 0x42FF3, size: 0x8, addend: 0x0, symName: __ZNKSt7__cxx1112basic_stringIcSt11char_traitsIcESaIcEE8max_sizeEv, symObjAddr: 0x18B9C, symBinAddr: 0x10001A774, symSize: 0x44 }
  - { offsetInCU: 0x4309F, offset: 0x4309F, size: 0x8, addend: 0x0, symName: __ZSt9addressofIcEPT_RS0_, symObjAddr: 0x18B80, symBinAddr: 0x10001A758, symSize: 0x1C }
  - { offsetInCU: 0x430D5, offset: 0x430D5, size: 0x8, addend: 0x0, symName: __ZNKSt6vectorIiSaIiEE8max_sizeEv, symObjAddr: 0x18B60, symBinAddr: 0x10001A738, symSize: 0x20 }
  - { offsetInCU: 0x430FB, offset: 0x430FB, size: 0x8, addend: 0x0, symName: __ZSt22__final_insertion_sortIN9__gnu_cxx17__normal_iteratorIPSt5tupleIJiiiEESt6vectorIS3_SaIS3_EEEENS0_5__ops15_Iter_less_iterEEvT_SB_T0_, symObjAddr: 0x18AC4, symBinAddr: 0x10001A69C, symSize: 0x9C }
  - { offsetInCU: 0x43159, offset: 0x43159, size: 0x8, addend: 0x0, symName: __ZSt16__introsort_loopIN9__gnu_cxx17__normal_iteratorIPSt5tupleIJiiiEESt6vectorIS3_SaIS3_EEEElNS0_5__ops15_Iter_less_iterEEvT_SB_T0_T1_, symObjAddr: 0x18A0C, symBinAddr: 0x10001A5E4, symSize: 0xB8 }
  - { offsetInCU: 0x431F5, offset: 0x431F5, size: 0x8, addend: 0x0, symName: __ZN9__gnu_cxxneIPSt5tupleIJiiiEESt6vectorIS2_SaIS2_EEEEbRKNS_17__normal_iteratorIT_T0_EESC_, symObjAddr: 0x189C8, symBinAddr: 0x10001A5A0, symSize: 0x44 }
  - { offsetInCU: 0x43246, offset: 0x43246, size: 0x8, addend: 0x0, symName: __ZNK9__gnu_cxx17__normal_iteratorIPSt5tupleIJiiiEESt6vectorIS2_SaIS2_EEEdeEv, symObjAddr: 0x189B0, symBinAddr: 0x10001A588, symSize: 0x18 }
  - { offsetInCU: 0x43270, offset: 0x43270, size: 0x8, addend: 0x0, symName: __ZNK9__gnu_cxx17__normal_iteratorIPSt5tupleIJiiiEESt6vectorIS2_SaIS2_EEEmiEl, symObjAddr: 0x18960, symBinAddr: 0x10001A538, symSize: 0x50 }
  - { offsetInCU: 0x432AB, offset: 0x432AB, size: 0x8, addend: 0x0, symName: __ZNKSt6vectorISt5tupleIJiiiEESaIS1_EE5emptyEv, symObjAddr: 0x18928, symBinAddr: 0x10001A500, symSize: 0x38 }
  - { offsetInCU: 0x432D1, offset: 0x432D1, size: 0x8, addend: 0x0, symName: __ZNSt6vectorISt5tupleIJiiiEESaIS1_EE11_S_relocateEPS1_S4_S4_RS2_, symObjAddr: 0x188F4, symBinAddr: 0x10001A4CC, symSize: 0x34 }
  - { offsetInCU: 0x4332E, offset: 0x4332E, size: 0x8, addend: 0x0, symName: __ZSt12__to_addressISt5tupleIJiiiEEEPT_S3_, symObjAddr: 0x188E0, symBinAddr: 0x10001A4B8, symSize: 0x14 }
  - { offsetInCU: 0x43364, offset: 0x43364, size: 0x8, addend: 0x0, symName: __ZNSt12_Vector_baseISt5tupleIJiiiEESaIS1_EE11_M_allocateEm, symObjAddr: 0x18890, symBinAddr: 0x10001A468, symSize: 0x50 }
  - { offsetInCU: 0x433C8, offset: 0x433C8, size: 0x8, addend: 0x0, symName: __ZN9__gnu_cxxmiIPSt5tupleIJiiiEESt6vectorIS2_SaIS2_EEEENS_17__normal_iteratorIT_T0_E15difference_typeERKSA_SD_, symObjAddr: 0x18844, symBinAddr: 0x10001A41C, symSize: 0x4C }
  - { offsetInCU: 0x43419, offset: 0x43419, size: 0x8, addend: 0x0, symName: __ZNKSt6vectorISt5tupleIJiiiEESaIS1_EE12_M_check_lenEmPKc, symObjAddr: 0x18774, symBinAddr: 0x10001A34C, symSize: 0xD0 }
  - { offsetInCU: 0x434C8, offset: 0x434C8, size: 0x8, addend: 0x0, symName: __ZSt8_DestroyIPSt5tupleIJiiiEEEvT_S3_, symObjAddr: 0x1874C, symBinAddr: 0x10001A324, symSize: 0x28 }
  - { offsetInCU: 0x43556, offset: 0x43556, size: 0x8, addend: 0x0, symName: __ZNSt6vectorIbSaIbEE14_M_fill_insertESt13_Bit_iteratormb, symObjAddr: 0x184F8, symBinAddr: 0x10001A0D0, symSize: 0x254 }
  - { offsetInCU: 0x43622, offset: 0x43622, size: 0x8, addend: 0x0, symName: __ZNKSt6vectorIbSaIbEE6cbeginEv, symObjAddr: 0x184A8, symBinAddr: 0x10001A080, symSize: 0x50 }
  - { offsetInCU: 0x4364C, offset: 0x4364C, size: 0x8, addend: 0x0, symName: __ZNKSt6vectorIbSaIbEE5beginEv, symObjAddr: 0x18458, symBinAddr: 0x10001A030, symSize: 0x50 }
  - { offsetInCU: 0x43676, offset: 0x43676, size: 0x8, addend: 0x0, symName: __ZNKSt6vectorIbSaIbEE3endEv, symObjAddr: 0x1840C, symBinAddr: 0x100019FE4, symSize: 0x4C }
  - { offsetInCU: 0x4369C, offset: 0x4369C, size: 0x8, addend: 0x0, symName: __ZSt8_DestroyIPSt6vectorIbSaIbEEEvT_S4_, symObjAddr: 0x183E4, symBinAddr: 0x100019FBC, symSize: 0x28 }
  - { offsetInCU: 0x436DE, offset: 0x436DE, size: 0x8, addend: 0x0, symName: __ZSt27__uninitialized_default_n_aIPSt6vectorIbSaIbEEmS2_ET_S4_T0_RSaIT1_E, symObjAddr: 0x183BC, symBinAddr: 0x100019F94, symSize: 0x28 }
  - { offsetInCU: 0x43741, offset: 0x43741, size: 0x8, addend: 0x0, symName: __ZNSt12_Vector_baseISt6vectorIbSaIbEESaIS2_EE13_M_deallocateEPS2_m, symObjAddr: 0x18364, symBinAddr: 0x100019F3C, symSize: 0x58 }
  - { offsetInCU: 0x437C3, offset: 0x437C3, size: 0x8, addend: 0x0, symName: __ZNSt12_Vector_baseISt6vectorIbSaIbEESaIS2_EE17_M_create_storageEm, symObjAddr: 0x182F8, symBinAddr: 0x100019ED0, symSize: 0x6C }
  - { offsetInCU: 0x43865, offset: 0x43865, size: 0x8, addend: 0x0, symName: __ZNSt12_Vector_baseISt6vectorIbSaIbEESaIS2_EE12_Vector_implC1ERKS3_, symObjAddr: 0x182AC, symBinAddr: 0x100019E84, symSize: 0x4C }
  - { offsetInCU: 0x438CB, offset: 0x438CB, size: 0x8, addend: 0x0, symName: __ZNSt6vectorIS_IbSaIbEESaIS1_EE11_S_max_sizeERKS2_, symObjAddr: 0x18250, symBinAddr: 0x100019E28, symSize: 0x5C }
  - { offsetInCU: 0x43982, offset: 0x43982, size: 0x8, addend: 0x0, symName: __ZSt34__uninitialized_move_if_noexcept_aIPdS0_SaIdEET0_T_S3_S2_RT1_, symObjAddr: 0x18200, symBinAddr: 0x100019DD8, symSize: 0x50 }
  - { offsetInCU: 0x439FE, offset: 0x439FE, size: 0x8, addend: 0x0, symName: __ZNKSt6vectorIdSaIdEE12_M_check_lenEmPKc, symObjAddr: 0x18130, symBinAddr: 0x100019D08, symSize: 0xD0 }
  - { offsetInCU: 0x43A57, offset: 0x43A57, size: 0x8, addend: 0x0, symName: __ZSt4fillIPddEvT_S1_RKT0_, symObjAddr: 0x18100, symBinAddr: 0x100019CD8, symSize: 0x30 }
  - { offsetInCU: 0x43AB5, offset: 0x43AB5, size: 0x8, addend: 0x0, symName: __ZSt13move_backwardIPdS0_ET0_T_S2_S1_, symObjAddr: 0x180B8, symBinAddr: 0x100019C90, symSize: 0x48 }
  - { offsetInCU: 0x43B13, offset: 0x43B13, size: 0x8, addend: 0x0, symName: __ZSt22__uninitialized_move_aIPdS0_SaIdEET0_T_S3_S2_RT1_, symObjAddr: 0x18068, symBinAddr: 0x100019C40, symSize: 0x50 }
  - { offsetInCU: 0x43B91, offset: 0x43B91, size: 0x8, addend: 0x0, symName: __ZN9__gnu_cxxmiIPdSt6vectorIdSaIdEEEENS_17__normal_iteratorIT_T0_E15difference_typeERKS8_SB_, symObjAddr: 0x18028, symBinAddr: 0x100019C00, symSize: 0x40 }
  - { offsetInCU: 0x43BE2, offset: 0x43BE2, size: 0x8, addend: 0x0, symName: __ZNSt6vectorIdSaIdEE16_Temporary_value6_M_valEv, symObjAddr: 0x18010, symBinAddr: 0x100019BE8, symSize: 0x18 }
  - { offsetInCU: 0x43C57, offset: 0x43C57, size: 0x8, addend: 0x0, symName: __ZNSt6vectorIdSaIdEE16_Temporary_valueD1Ev, symObjAddr: 0x17FB0, symBinAddr: 0x100019B88, symSize: 0x60 }
  - { offsetInCU: 0x43D25, offset: 0x43D25, size: 0x8, addend: 0x0, symName: __ZNSt6vectorIdSaIdEE16_Temporary_valueC1IJRKdEEEPS1_DpOT_, symObjAddr: 0x17EF8, symBinAddr: 0x100019AD0, symSize: 0xB8 }
  - { offsetInCU: 0x43DA2, offset: 0x43DA2, size: 0x8, addend: 0x0, symName: __ZNSt11_Tuple_implILm1EJdEE7_M_headERS0_, symObjAddr: 0x17EDC, symBinAddr: 0x100019AB4, symSize: 0x1C }
  - { offsetInCU: 0x43DCC, offset: 0x43DCC, size: 0x8, addend: 0x0, symName: __ZNSt11_Tuple_implILm0EJSt6vectorIdSaIdEEdEE7_M_headERS3_, symObjAddr: 0x17EBC, symBinAddr: 0x100019A94, symSize: 0x20 }
  - { offsetInCU: 0x43E1C, offset: 0x43E1C, size: 0x8, addend: 0x0, symName: __ZNSt12_Vector_baseIP4NodeSaIS1_EE17_Vector_impl_data12_M_swap_dataERS4_, symObjAddr: 0x17E70, symBinAddr: 0x100019A48, symSize: 0x4C }
  - { offsetInCU: 0x43E74, offset: 0x43E74, size: 0x8, addend: 0x0, symName: __ZSt34__uninitialized_move_if_noexcept_aIPiS0_SaIiEET0_T_S3_S2_RT1_, symObjAddr: 0x17E20, symBinAddr: 0x1000199F8, symSize: 0x50 }
  - { offsetInCU: 0x43EEC, offset: 0x43EEC, size: 0x8, addend: 0x0, symName: __ZSt4fillIPiiEvT_S1_RKT0_, symObjAddr: 0x17DF0, symBinAddr: 0x1000199C8, symSize: 0x30 }
  - { offsetInCU: 0x43F4A, offset: 0x43F4A, size: 0x8, addend: 0x0, symName: __ZSt13move_backwardIPiS0_ET0_T_S2_S1_, symObjAddr: 0x17DA8, symBinAddr: 0x100019980, symSize: 0x48 }
  - { offsetInCU: 0x43FA8, offset: 0x43FA8, size: 0x8, addend: 0x0, symName: __ZSt22__uninitialized_move_aIPiS0_SaIiEET0_T_S3_S2_RT1_, symObjAddr: 0x17D58, symBinAddr: 0x100019930, symSize: 0x50 }
  - { offsetInCU: 0x44024, offset: 0x44024, size: 0x8, addend: 0x0, symName: __ZNSt6vectorIiSaIiEE16_Temporary_value6_M_valEv, symObjAddr: 0x17D40, symBinAddr: 0x100019918, symSize: 0x18 }
  - { offsetInCU: 0x44099, offset: 0x44099, size: 0x8, addend: 0x0, symName: __ZNSt6vectorIiSaIiEE16_Temporary_valueD1Ev, symObjAddr: 0x17CE0, symBinAddr: 0x1000198B8, symSize: 0x60 }
  - { offsetInCU: 0x44167, offset: 0x44167, size: 0x8, addend: 0x0, symName: __ZNSt6vectorIiSaIiEE16_Temporary_valueC1IJRKiEEEPS1_DpOT_, symObjAddr: 0x17C28, symBinAddr: 0x100019800, symSize: 0xB8 }
  - { offsetInCU: 0x4424D, offset: 0x4424D, size: 0x8, addend: 0x0, symName: __ZNSt10_Head_baseILm0ESt6vectorIdSaIdEELb0EEC2IRS2_EEOT_, symObjAddr: 0x17BEC, symBinAddr: 0x1000197C4, symSize: 0x3C }
  - { offsetInCU: 0x442A3, offset: 0x442A3, size: 0x8, addend: 0x0, symName: __ZNSt11_Tuple_implILm1EJdEEC2IRdEEOT_, symObjAddr: 0x17BB0, symBinAddr: 0x100019788, symSize: 0x3C }
  - { offsetInCU: 0x442B5, offset: 0x442B5, size: 0x8, addend: 0x0, symName: __ZNSt6chrono20__duration_cast_implINS_8durationIdSt5ratioILl1ELl1EEEES2_ILl1ELl1000000000EEdLb1ELb0EE6__castIxS5_EES4_RKNS1_IT_T0_EE, symObjAddr: 0x17B60, symBinAddr: 0x100019738, symSize: 0x50 }
  - { offsetInCU: 0x4432E, offset: 0x4432E, size: 0x8, addend: 0x0, symName: __ZSteqRKSt15_Deque_iteratorIdRdPdES4_, symObjAddr: 0x17B30, symBinAddr: 0x100019708, symSize: 0x30 }
  - { offsetInCU: 0x4436A, offset: 0x4436A, size: 0x8, addend: 0x0, symName: __ZNSt15_Deque_iteratorIdRdPdE14_S_buffer_sizeEv, symObjAddr: 0x17B18, symBinAddr: 0x1000196F0, symSize: 0x18 }
  - { offsetInCU: 0x44385, offset: 0x44385, size: 0x8, addend: 0x0, symName: __ZNK9__gnu_cxx17__normal_iteratorIPdSt6vectorIdSaIdEEE4baseEv, symObjAddr: 0x17B04, symBinAddr: 0x1000196DC, symSize: 0x14 }
  - { offsetInCU: 0x443AF, offset: 0x443AF, size: 0x8, addend: 0x0, symName: __ZNSt11_Deque_baseIdSaIdEE16_M_allocate_nodeEv, symObjAddr: 0x17AC0, symBinAddr: 0x100019698, symSize: 0x44 }
  - { offsetInCU: 0x44406, offset: 0x44406, size: 0x8, addend: 0x0, symName: __ZNSt5dequeIdSaIdEE22_M_reserve_map_at_backEm, symObjAddr: 0x17A60, symBinAddr: 0x100019638, symSize: 0x60 }
  - { offsetInCU: 0x44441, offset: 0x44441, size: 0x8, addend: 0x0, symName: __ZNKSt5dequeIdSaIdEE8max_sizeEv, symObjAddr: 0x17A40, symBinAddr: 0x100019618, symSize: 0x20 }
  - { offsetInCU: 0x444AF, offset: 0x444AF, size: 0x8, addend: 0x0, symName: __ZSt7forwardIRKdEOT_RNSt16remove_referenceIS2_E4typeE, symObjAddr: 0x17A2C, symBinAddr: 0x100019604, symSize: 0x14 }
  - { offsetInCU: 0x444E5, offset: 0x444E5, size: 0x8, addend: 0x0, symName: __ZNSt5dequeIdSaIdEE16_M_push_back_auxIJdEEEvDpOT_, symObjAddr: 0x1790C, symBinAddr: 0x1000194E4, symSize: 0x120 }
  - { offsetInCU: 0x445DC, offset: 0x445DC, size: 0x8, addend: 0x0, symName: __ZSt7forwardIdEOT_RNSt16remove_referenceIS0_E4typeE, symObjAddr: 0x178F8, symBinAddr: 0x1000194D0, symSize: 0x14 }
  - { offsetInCU: 0x4465B, offset: 0x4465B, size: 0x8, addend: 0x0, symName: __ZNSt15_Deque_iteratorIdRdPdEC1ERKS2_, symObjAddr: 0x178A0, symBinAddr: 0x100019478, symSize: 0x58 }
  - { offsetInCU: 0x446BA, offset: 0x446BA, size: 0x8, addend: 0x0, symName: __ZNKSt11_Deque_baseIdSaIdEE20_M_get_map_allocatorEv, symObjAddr: 0x17858, symBinAddr: 0x100019430, symSize: 0x48 }
  - { offsetInCU: 0x44734, offset: 0x44734, size: 0x8, addend: 0x0, symName: __ZNSt11_Deque_baseIdSaIdEE18_M_deallocate_nodeEPd, symObjAddr: 0x17800, symBinAddr: 0x1000193D8, symSize: 0x58 }
  - { offsetInCU: 0x447A5, offset: 0x447A5, size: 0x8, addend: 0x0, symName: __ZNSt15_Deque_iteratorIdRdPdE11_M_set_nodeEPS1_, symObjAddr: 0x177A4, symBinAddr: 0x10001937C, symSize: 0x5C }
  - { offsetInCU: 0x447E0, offset: 0x447E0, size: 0x8, addend: 0x0, symName: __ZNSt11_Deque_baseIdSaIdEE15_M_create_nodesEPPdS3_, symObjAddr: 0x17718, symBinAddr: 0x1000192F0, symSize: 0x8C }
  - { offsetInCU: 0x4483D, offset: 0x4483D, size: 0x8, addend: 0x0, symName: __ZNSt11_Deque_baseIdSaIdEE15_M_allocate_mapEm, symObjAddr: 0x17698, symBinAddr: 0x100019270, symSize: 0x80 }
  - { offsetInCU: 0x4493C, offset: 0x4493C, size: 0x8, addend: 0x0, symName: __ZNSt11_Deque_baseIdSaIdEE16_Deque_impl_dataC2Ev, symObjAddr: 0x17658, symBinAddr: 0x100019230, symSize: 0x40 }
  - { offsetInCU: 0x44931, offset: 0x44931, size: 0x8, addend: 0x0, symName: __ZSt18uninitialized_copyIN9__gnu_cxx17__normal_iteratorIPKdSt6vectorIdSaIdEEEEPdET0_T_SA_S9_, symObjAddr: 0x1761C, symBinAddr: 0x1000191F4, symSize: 0x3C }
  - { offsetInCU: 0x449C2, offset: 0x449C2, size: 0x8, addend: 0x0, symName: __ZSt24__uninitialized_fill_n_aIPdmddET_S1_T0_RKT1_RSaIT2_E, symObjAddr: 0x175EC, symBinAddr: 0x1000191C4, symSize: 0x30 }
  - { offsetInCU: 0x44A3B, offset: 0x44A3B, size: 0x8, addend: 0x0, symName: __ZSt18uninitialized_copyIPdS0_ET0_T_S2_S1_, symObjAddr: 0x175B0, symBinAddr: 0x100019188, symSize: 0x3C }
  - { offsetInCU: 0x44AB6, offset: 0x44AB6, size: 0x8, addend: 0x0, symName: __ZSt13__copy_move_aILb0EPdS0_ET1_T0_S2_S1_, symObjAddr: 0x17550, symBinAddr: 0x100019128, symSize: 0x60 }
  - { offsetInCU: 0x44B1E, offset: 0x44B1E, size: 0x8, addend: 0x0, symName: __ZSt12__miter_baseIPdET_S1_, symObjAddr: 0x1753C, symBinAddr: 0x100019114, symSize: 0x14 }
  - { offsetInCU: 0x44B51, offset: 0x44B51, size: 0x8, addend: 0x0, symName: __ZSt8_DestroyIN9__gnu_cxx17__normal_iteratorIPdSt6vectorIdSaIdEEEEEvT_S7_, symObjAddr: 0x17514, symBinAddr: 0x1000190EC, symSize: 0x28 }
  - { offsetInCU: 0x44B93, offset: 0x44B93, size: 0x8, addend: 0x0, symName: __ZSt13__copy_move_aILb0EN9__gnu_cxx17__normal_iteratorIPKdSt6vectorIdSaIdEEEENS1_IPdS6_EEET1_T0_SB_SA_, symObjAddr: 0x174B4, symBinAddr: 0x10001908C, symSize: 0x60 }
  - { offsetInCU: 0x44BFB, offset: 0x44BFB, size: 0x8, addend: 0x0, symName: __ZSt12__miter_baseIN9__gnu_cxx17__normal_iteratorIPKdSt6vectorIdSaIdEEEEET_S8_, symObjAddr: 0x174A0, symBinAddr: 0x100019078, symSize: 0x14 }
  - { offsetInCU: 0x44C2E, offset: 0x44C2E, size: 0x8, addend: 0x0, symName: __ZSt8_DestroyIPdEvT_S1_, symObjAddr: 0x17478, symBinAddr: 0x100019050, symSize: 0x28 }
  - { offsetInCU: 0x44C74, offset: 0x44C74, size: 0x8, addend: 0x0, symName: __ZNSt12_Vector_baseIdSaIdEE11_M_allocateEm, symObjAddr: 0x17428, symBinAddr: 0x100019000, symSize: 0x50 }
  - { offsetInCU: 0x44D3F, offset: 0x44D3F, size: 0x8, addend: 0x0, symName: __ZN9__gnu_cxx17__normal_iteratorIPKdSt6vectorIdSaIdEEEC1ERKS2_, symObjAddr: 0x17400, symBinAddr: 0x100018FD8, symSize: 0x28 }
  - { offsetInCU: 0x44D2F, offset: 0x44D2F, size: 0x8, addend: 0x0, symName: __ZSt27__uninitialized_default_n_aIPdmdET_S1_T0_RSaIT1_E, symObjAddr: 0x173D8, symBinAddr: 0x100018FB0, symSize: 0x28 }
  - { offsetInCU: 0x44D92, offset: 0x44D92, size: 0x8, addend: 0x0, symName: __ZNSt12_Vector_baseIdSaIdEE17_M_create_storageEm, symObjAddr: 0x17378, symBinAddr: 0x100018F50, symSize: 0x60 }
  - { offsetInCU: 0x44E22, offset: 0x44E22, size: 0x8, addend: 0x0, symName: __ZNSt12_Vector_baseIdSaIdEE12_Vector_implC1ERKS0_, symObjAddr: 0x1732C, symBinAddr: 0x100018F04, symSize: 0x4C }
  - { offsetInCU: 0x44E9A, offset: 0x44E9A, size: 0x8, addend: 0x0, symName: __ZNSt6vectorIdSaIdEE11_S_max_sizeERKS0_, symObjAddr: 0x172D8, symBinAddr: 0x100018EB0, symSize: 0x54 }
  - { offsetInCU: 0x44F51, offset: 0x44F51, size: 0x8, addend: 0x0, symName: __ZSt8_DestroyIPSt4pairIiiEEvT_S3_, symObjAddr: 0x172B0, symBinAddr: 0x100018E88, symSize: 0x28 }
  - { offsetInCU: 0x44F93, offset: 0x44F93, size: 0x8, addend: 0x0, symName: __ZSt24__uninitialized_fill_n_aIPSt4pairIiiEmS1_S1_ET_S3_T0_RKT1_RSaIT2_E, symObjAddr: 0x17280, symBinAddr: 0x100018E58, symSize: 0x30 }
  - { offsetInCU: 0x45010, offset: 0x45010, size: 0x8, addend: 0x0, symName: __ZNSt12_Vector_baseISt4pairIiiESaIS1_EE13_M_deallocateEPS1_m, symObjAddr: 0x17228, symBinAddr: 0x100018E00, symSize: 0x58 }
  - { offsetInCU: 0x45092, offset: 0x45092, size: 0x8, addend: 0x0, symName: __ZNSt12_Vector_baseISt4pairIiiESaIS1_EE17_M_create_storageEm, symObjAddr: 0x171C8, symBinAddr: 0x100018DA0, symSize: 0x60 }
  - { offsetInCU: 0x4512E, offset: 0x4512E, size: 0x8, addend: 0x0, symName: __ZNSt12_Vector_baseISt4pairIiiESaIS1_EE12_Vector_implC1ERKS2_, symObjAddr: 0x1717C, symBinAddr: 0x100018D54, symSize: 0x4C }
  - { offsetInCU: 0x4519A, offset: 0x4519A, size: 0x8, addend: 0x0, symName: __ZNSt6vectorISt4pairIiiESaIS1_EE11_S_max_sizeERKS2_, symObjAddr: 0x17128, symBinAddr: 0x100018D00, symSize: 0x54 }
  - { offsetInCU: 0x45255, offset: 0x45255, size: 0x8, addend: 0x0, symName: __ZNSt7__cxx1112basic_stringIcSt11char_traitsIcESaIcEE6appendEPKcm, symObjAddr: 0x170E4, symBinAddr: 0x100018CBC, symSize: 0x44 }
  - { offsetInCU: 0x452A6, offset: 0x452A6, size: 0x8, addend: 0x0, symName: __ZNSt7__cxx1112basic_stringIcSt11char_traitsIcESaIcEE9_M_appendEPKcm, symObjAddr: 0x1701C, symBinAddr: 0x100018BF4, symSize: 0xC8 }
  - { offsetInCU: 0x45302, offset: 0x45302, size: 0x8, addend: 0x0, symName: __ZNKSt7__cxx1112basic_stringIcSt11char_traitsIcESaIcEE15_M_check_lengthEmmPKc, symObjAddr: 0x16FA8, symBinAddr: 0x100018B80, symSize: 0x74 }
  - { offsetInCU: 0x4535B, offset: 0x4535B, size: 0x8, addend: 0x0, symName: __ZSt8_DestroyIPSt6vectorIxSaIxEEEvT_S4_, symObjAddr: 0x16F80, symBinAddr: 0x100018B58, symSize: 0x28 }
  - { offsetInCU: 0x4539D, offset: 0x4539D, size: 0x8, addend: 0x0, symName: __ZSt24__uninitialized_fill_n_aIPSt6vectorIxSaIxEEmS2_S2_ET_S4_T0_RKT1_RSaIT2_E, symObjAddr: 0x16F50, symBinAddr: 0x100018B28, symSize: 0x30 }
  - { offsetInCU: 0x4541A, offset: 0x4541A, size: 0x8, addend: 0x0, symName: __ZNSt12_Vector_baseISt6vectorIxSaIxEESaIS2_EE13_M_deallocateEPS2_m, symObjAddr: 0x16EF8, symBinAddr: 0x100018AD0, symSize: 0x58 }
  - { offsetInCU: 0x4549C, offset: 0x4549C, size: 0x8, addend: 0x0, symName: __ZNSt12_Vector_baseISt6vectorIxSaIxEESaIS2_EE17_M_create_storageEm, symObjAddr: 0x16E8C, symBinAddr: 0x100018A64, symSize: 0x6C }
  - { offsetInCU: 0x4553E, offset: 0x4553E, size: 0x8, addend: 0x0, symName: __ZNSt12_Vector_baseISt6vectorIxSaIxEESaIS2_EE12_Vector_implC1ERKS3_, symObjAddr: 0x16E40, symBinAddr: 0x100018A18, symSize: 0x4C }
  - { offsetInCU: 0x455A4, offset: 0x455A4, size: 0x8, addend: 0x0, symName: __ZNSt6vectorIS_IxSaIxEESaIS1_EE11_S_max_sizeERKS2_, symObjAddr: 0x16DE4, symBinAddr: 0x1000189BC, symSize: 0x5C }
  - { offsetInCU: 0x4565B, offset: 0x4565B, size: 0x8, addend: 0x0, symName: __ZSt8_DestroyIPxEvT_S1_, symObjAddr: 0x16DBC, symBinAddr: 0x100018994, symSize: 0x28 }
  - { offsetInCU: 0x4569D, offset: 0x4569D, size: 0x8, addend: 0x0, symName: __ZSt24__uninitialized_fill_n_aIPxmxxET_S1_T0_RKT1_RSaIT2_E, symObjAddr: 0x16D8C, symBinAddr: 0x100018964, symSize: 0x30 }
  - { offsetInCU: 0x4571A, offset: 0x4571A, size: 0x8, addend: 0x0, symName: __ZNSt12_Vector_baseIxSaIxEE13_M_deallocateEPxm, symObjAddr: 0x16D34, symBinAddr: 0x10001890C, symSize: 0x58 }
  - { offsetInCU: 0x4579C, offset: 0x4579C, size: 0x8, addend: 0x0, symName: __ZNSt12_Vector_baseIxSaIxEE17_M_create_storageEm, symObjAddr: 0x16CD4, symBinAddr: 0x1000188AC, symSize: 0x60 }
  - { offsetInCU: 0x4582C, offset: 0x4582C, size: 0x8, addend: 0x0, symName: __ZNSt12_Vector_baseIxSaIxEE12_Vector_implC1ERKS0_, symObjAddr: 0x16C88, symBinAddr: 0x100018860, symSize: 0x4C }
  - { offsetInCU: 0x458A4, offset: 0x458A4, size: 0x8, addend: 0x0, symName: __ZNSt6vectorIxSaIxEE11_S_max_sizeERKS0_, symObjAddr: 0x16C34, symBinAddr: 0x10001880C, symSize: 0x54 }
  - { offsetInCU: 0x4595B, offset: 0x4595B, size: 0x8, addend: 0x0, symName: __ZSt24__uninitialized_fill_n_aIPimiiET_S1_T0_RKT1_RSaIT2_E, symObjAddr: 0x16C04, symBinAddr: 0x1000187DC, symSize: 0x30 }
  - { offsetInCU: 0x459D8, offset: 0x459D8, size: 0x8, addend: 0x0, symName: __ZNSt6vectorIiSaIiEE17_M_realloc_appendIJiEEEvDpOT_, symObjAddr: 0x16A48, symBinAddr: 0x100018620, symSize: 0x1BC }
  - { offsetInCU: 0x45BA1, offset: 0x45BA1, size: 0x8, addend: 0x0, symName: __ZZNSt6vectorIiSaIiEE17_M_realloc_appendIJiEEEvDpOT_EN6_GuardC1EPimRS0_, symObjAddr: 0x169A4, symBinAddr: 0x10001857C, symSize: 0x44 }
  - { offsetInCU: 0x45BE1, offset: 0x45BE1, size: 0x8, addend: 0x0, symName: __ZZNSt6vectorIiSaIiEE17_M_realloc_appendIJiEEEvDpOT_EN6_GuardD1Ev, symObjAddr: 0x169E8, symBinAddr: 0x1000185C0, symSize: 0x60 }
  - { offsetInCU: 0x45CD9, offset: 0x45CD9, size: 0x8, addend: 0x0, symName: __ZNK9__gnu_cxx17__normal_iteratorIPiSt6vectorIiSaIiEEEmiEl, symObjAddr: 0x16960, symBinAddr: 0x100018538, symSize: 0x44 }
  - { offsetInCU: 0x45D58, offset: 0x45D58, size: 0x8, addend: 0x0, symName: __ZN9__gnu_cxxltIPiSt6vectorIiSaIiEEEEbRKNS_17__normal_iteratorIT_T0_EESA_, symObjAddr: 0x1691C, symBinAddr: 0x1000184F4, symSize: 0x44 }
  - { offsetInCU: 0x45DA9, offset: 0x45DA9, size: 0x8, addend: 0x0, symName: __ZN9__gnu_cxx17__normal_iteratorIPiSt6vectorIiSaIiEEEmmEv, symObjAddr: 0x168F4, symBinAddr: 0x1000184CC, symSize: 0x28 }
  - { offsetInCU: 0x45DD8, offset: 0x45DD8, size: 0x8, addend: 0x0, symName: __ZNSt23mersenne_twister_engineIjLm32ELm624ELm397ELm31ELj2567483615ELm11ELj4294967295ELm7ELj2636928640ELm15ELj4022730752ELm18ELj1812433253EEclEv, symObjAddr: 0x16840, symBinAddr: 0x100018418, symSize: 0xB4 }
  - { offsetInCU: 0x45E14, offset: 0x45E14, size: 0x8, addend: 0x0, symName: __ZNSt24uniform_int_distributionImE5_S_ndIySt23mersenne_twister_engineIjLm32ELm624ELm397ELm31ELj2567483615ELm11ELj4294967295ELm7ELj2636928640ELm15ELj4022730752ELm18ELj1812433253EEjEET1_RT0_S4_, symObjAddr: 0x1679C, symBinAddr: 0x100018374, symSize: 0xA4 }
  - { offsetInCU: 0x45EB4, offset: 0x45EB4, size: 0x8, addend: 0x0, symName: __ZNKSt24uniform_int_distributionImE10param_type1aEv, symObjAddr: 0x16784, symBinAddr: 0x10001835C, symSize: 0x18 }
  - { offsetInCU: 0x45EDE, offset: 0x45EDE, size: 0x8, addend: 0x0, symName: __ZNKSt24uniform_int_distributionImE10param_type1bEv, symObjAddr: 0x1676C, symBinAddr: 0x100018344, symSize: 0x18 }
  - { offsetInCU: 0x45F04, offset: 0x45F04, size: 0x8, addend: 0x0, symName: __ZSt9make_pairImmESt4pairINSt25__strip_reference_wrapperINSt5decayIT_E4typeEE6__typeENS1_INS2_IT0_E4typeEE6__typeEEOS3_OS8_, symObjAddr: 0x16720, symBinAddr: 0x1000182F8, symSize: 0x4C }
  - { offsetInCU: 0x45F51, offset: 0x45F51, size: 0x8, addend: 0x0, symName: __ZNSt8__detail5__modIjLj624ELj1ELj0EEET_S1_, symObjAddr: 0x16704, symBinAddr: 0x1000182DC, symSize: 0x1C }
  - { offsetInCU: 0x45FA2, offset: 0x45FA2, size: 0x8, addend: 0x0, symName: __ZNSt8__detail5__modIjLj0ELj1ELj0EEET_S1_, symObjAddr: 0x166E8, symBinAddr: 0x1000182C0, symSize: 0x1C }
  - { offsetInCU: 0x45FF2, offset: 0x45FF2, size: 0x8, addend: 0x0, symName: __ZNSt6vectorIiSaIiEE11_S_relocateEPiS2_S2_RS0_, symObjAddr: 0x166B4, symBinAddr: 0x10001828C, symSize: 0x34 }
  - { offsetInCU: 0x4604F, offset: 0x4604F, size: 0x8, addend: 0x0, symName: __ZSt12__to_addressIiEPT_S1_, symObjAddr: 0x166A0, symBinAddr: 0x100018278, symSize: 0x14 }
  - { offsetInCU: 0x46085, offset: 0x46085, size: 0x8, addend: 0x0, symName: __ZNKSt6vectorIiSaIiEE12_M_check_lenEmPKc, symObjAddr: 0x165D0, symBinAddr: 0x1000181A8, symSize: 0xD0 }
  - { offsetInCU: 0x46126, offset: 0x46126, size: 0x8, addend: 0x0, symName: __ZSt7forwardIRKiEOT_RNSt16remove_referenceIS2_E4typeE, symObjAddr: 0x165BC, symBinAddr: 0x100018194, symSize: 0x14 }
  - { offsetInCU: 0x46189, offset: 0x46189, size: 0x8, addend: 0x0, symName: __ZNSt12_Vector_baseIiSaIiEE17_Vector_impl_data12_M_copy_dataERKS2_, symObjAddr: 0x16574, symBinAddr: 0x10001814C, symSize: 0x48 }
  - { offsetInCU: 0x461BF, offset: 0x461BF, size: 0x8, addend: 0x0, symName: __ZSt11__equal_auxIN9__gnu_cxx17__normal_iteratorIPKiSt6vectorIiSaIiEEEES7_EbT_S8_T0_, symObjAddr: 0x16520, symBinAddr: 0x1000180F8, symSize: 0x54 }
  - { offsetInCU: 0x4621D, offset: 0x4621D, size: 0x8, addend: 0x0, symName: __ZSt8_DestroyIPSt6vectorIiSaIiEEEvT_S4_, symObjAddr: 0x164F8, symBinAddr: 0x1000180D0, symSize: 0x28 }
  - { offsetInCU: 0x4625F, offset: 0x4625F, size: 0x8, addend: 0x0, symName: __ZSt24__uninitialized_fill_n_aIPSt6vectorIiSaIiEEmS2_S2_ET_S4_T0_RKT1_RSaIT2_E, symObjAddr: 0x164C8, symBinAddr: 0x1000180A0, symSize: 0x30 }
  - { offsetInCU: 0x462DC, offset: 0x462DC, size: 0x8, addend: 0x0, symName: __ZNSt12_Vector_baseISt6vectorIiSaIiEESaIS2_EE13_M_deallocateEPS2_m, symObjAddr: 0x16470, symBinAddr: 0x100018048, symSize: 0x58 }
  - { offsetInCU: 0x4635E, offset: 0x4635E, size: 0x8, addend: 0x0, symName: __ZNSt12_Vector_baseISt6vectorIiSaIiEESaIS2_EE17_M_create_storageEm, symObjAddr: 0x16404, symBinAddr: 0x100017FDC, symSize: 0x6C }
  - { offsetInCU: 0x46400, offset: 0x46400, size: 0x8, addend: 0x0, symName: __ZNSt12_Vector_baseISt6vectorIiSaIiEESaIS2_EE12_Vector_implC1ERKS3_, symObjAddr: 0x163B8, symBinAddr: 0x100017F90, symSize: 0x4C }
  - { offsetInCU: 0x46466, offset: 0x46466, size: 0x8, addend: 0x0, symName: __ZNSt6vectorIS_IiSaIiEESaIS1_EE11_S_max_sizeERKS2_, symObjAddr: 0x1635C, symBinAddr: 0x100017F34, symSize: 0x5C }
  - { offsetInCU: 0x4651D, offset: 0x4651D, size: 0x8, addend: 0x0, symName: __ZSt22__final_insertion_sortIN9__gnu_cxx17__normal_iteratorIPiSt6vectorIiSaIiEEEENS0_5__ops15_Iter_comp_iterIZ30shortest_processing_time_ordervEUliiE_EEEvT_SB_T0_, symObjAddr: 0x162D0, symBinAddr: 0x100017EA8, symSize: 0x8C }
  - { offsetInCU: 0x4657B, offset: 0x4657B, size: 0x8, addend: 0x0, symName: __ZSt16__introsort_loopIN9__gnu_cxx17__normal_iteratorIPiSt6vectorIiSaIiEEEElNS0_5__ops15_Iter_comp_iterIZ30shortest_processing_time_ordervEUliiE_EEEvT_SB_T0_T1_, symObjAddr: 0x16228, symBinAddr: 0x100017E00, symSize: 0xA8 }
  - { offsetInCU: 0x4663F, offset: 0x4663F, size: 0x8, addend: 0x0, symName: __ZN9__gnu_cxx5__ops15_Iter_comp_iterIZ30shortest_processing_time_ordervEUliiE_EC1ES2_, symObjAddr: 0x16204, symBinAddr: 0x100017DDC, symSize: 0x24 }
  - { offsetInCU: 0x46670, offset: 0x46670, size: 0x8, addend: 0x0, symName: __ZSt4moveIRZ30shortest_processing_time_ordervEUliiE_EONSt16remove_referenceIT_E4typeEOS3_, symObjAddr: 0x161F0, symBinAddr: 0x100017DC8, symSize: 0x14 }
  - { offsetInCU: 0x466A2, offset: 0x466A2, size: 0x8, addend: 0x0, symName: __ZSt22__final_insertion_sortIN9__gnu_cxx17__normal_iteratorIPiSt6vectorIiSaIiEEEENS0_5__ops15_Iter_comp_iterIZ15greedy_backwardvEUliiE_EEEvT_SB_T0_, symObjAddr: 0x16164, symBinAddr: 0x100017D3C, symSize: 0x8C }
  - { offsetInCU: 0x46700, offset: 0x46700, size: 0x8, addend: 0x0, symName: __ZSt16__introsort_loopIN9__gnu_cxx17__normal_iteratorIPiSt6vectorIiSaIiEEEElNS0_5__ops15_Iter_comp_iterIZ15greedy_backwardvEUliiE_EEEvT_SB_T0_T1_, symObjAddr: 0x160BC, symBinAddr: 0x100017C94, symSize: 0xA8 }
  - { offsetInCU: 0x467C4, offset: 0x467C4, size: 0x8, addend: 0x0, symName: __ZN9__gnu_cxx5__ops15_Iter_comp_iterIZ15greedy_backwardvEUliiE_EC1ES2_, symObjAddr: 0x16098, symBinAddr: 0x100017C70, symSize: 0x24 }
  - { offsetInCU: 0x467F5, offset: 0x467F5, size: 0x8, addend: 0x0, symName: __ZSt4moveIRZ15greedy_backwardvEUliiE_EONSt16remove_referenceIT_E4typeEOS3_, symObjAddr: 0x16084, symBinAddr: 0x100017C5C, symSize: 0x14 }
  - { offsetInCU: 0x46827, offset: 0x46827, size: 0x8, addend: 0x0, symName: __ZSt18uninitialized_copyIPiS0_ET0_T_S2_S1_, symObjAddr: 0x16048, symBinAddr: 0x100017C20, symSize: 0x3C }
  - { offsetInCU: 0x468A2, offset: 0x468A2, size: 0x8, addend: 0x0, symName: __ZSt13__copy_move_aILb0EPiS0_ET1_T0_S2_S1_, symObjAddr: 0x15FE8, symBinAddr: 0x100017BC0, symSize: 0x60 }
  - { offsetInCU: 0x4690A, offset: 0x4690A, size: 0x8, addend: 0x0, symName: __ZSt12__miter_baseIPiET_S1_, symObjAddr: 0x15FD4, symBinAddr: 0x100017BAC, symSize: 0x14 }
  - { offsetInCU: 0x4693D, offset: 0x4693D, size: 0x8, addend: 0x0, symName: __ZSt8_DestroyIN9__gnu_cxx17__normal_iteratorIPiSt6vectorIiSaIiEEEEEvT_S7_, symObjAddr: 0x15FAC, symBinAddr: 0x100017B84, symSize: 0x28 }
  - { offsetInCU: 0x4697F, offset: 0x4697F, size: 0x8, addend: 0x0, symName: __ZSt13__copy_move_aILb0EN9__gnu_cxx17__normal_iteratorIPKiSt6vectorIiSaIiEEEENS1_IPiS6_EEET1_T0_SB_SA_, symObjAddr: 0x15F4C, symBinAddr: 0x100017B24, symSize: 0x60 }
  - { offsetInCU: 0x469E7, offset: 0x469E7, size: 0x8, addend: 0x0, symName: __ZSt12__miter_baseIN9__gnu_cxx17__normal_iteratorIPKiSt6vectorIiSaIiEEEEET_S8_, symObjAddr: 0x15F38, symBinAddr: 0x100017B10, symSize: 0x14 }
  - { offsetInCU: 0x46A1E, offset: 0x46A1E, size: 0x8, addend: 0x0, symName: __ZNSt12_Vector_baseIiSaIiEE11_M_allocateEm, symObjAddr: 0x15EE8, symBinAddr: 0x100017AC0, symSize: 0x50 }
  - { offsetInCU: 0x46A82, offset: 0x46A82, size: 0x8, addend: 0x0, symName: __ZSt18uninitialized_copyIN9__gnu_cxx17__normal_iteratorIPKiSt6vectorIiSaIiEEEEPiET0_T_SA_S9_, symObjAddr: 0x15EAC, symBinAddr: 0x100017A84, symSize: 0x3C }
  - { offsetInCU: 0x46B13, offset: 0x46B13, size: 0x8, addend: 0x0, symName: __ZSt22__final_insertion_sortIN9__gnu_cxx17__normal_iteratorIPiSt6vectorIiSaIiEEEENS0_5__ops15_Iter_comp_iterIZ15greedy_fordwardvEUliiE_EEEvT_SB_T0_, symObjAddr: 0x15E20, symBinAddr: 0x1000179F8, symSize: 0x8C }
  - { offsetInCU: 0x46B71, offset: 0x46B71, size: 0x8, addend: 0x0, symName: __ZSt16__introsort_loopIN9__gnu_cxx17__normal_iteratorIPiSt6vectorIiSaIiEEEElNS0_5__ops15_Iter_comp_iterIZ15greedy_fordwardvEUliiE_EEEvT_SB_T0_T1_, symObjAddr: 0x15D78, symBinAddr: 0x100017950, symSize: 0xA8 }
  - { offsetInCU: 0x46C0D, offset: 0x46C0D, size: 0x8, addend: 0x0, symName: __ZSt4__lgIlET_S0_, symObjAddr: 0x15D54, symBinAddr: 0x10001792C, symSize: 0x24 }
  - { offsetInCU: 0x46C68, offset: 0x46C68, size: 0x8, addend: 0x0, symName: __ZN9__gnu_cxx5__ops15_Iter_comp_iterIZ15greedy_fordwardvEUliiE_EC1ES2_, symObjAddr: 0x15D30, symBinAddr: 0x100017908, symSize: 0x24 }
  - { offsetInCU: 0x46C99, offset: 0x46C99, size: 0x8, addend: 0x0, symName: __ZSt4moveIRZ15greedy_fordwardvEUliiE_EONSt16remove_referenceIT_E4typeEOS3_, symObjAddr: 0x15D1C, symBinAddr: 0x1000178F4, symSize: 0x14 }
  - { offsetInCU: 0x46CE6, offset: 0x46CE6, size: 0x8, addend: 0x0, symName: __ZSt8_DestroyIPiEvT_S1_, symObjAddr: 0x15CF4, symBinAddr: 0x1000178CC, symSize: 0x28 }
  - { offsetInCU: 0x46D28, offset: 0x46D28, size: 0x8, addend: 0x0, symName: __ZSt27__uninitialized_default_n_aIPimiET_S1_T0_RSaIT1_E, symObjAddr: 0x15CCC, symBinAddr: 0x1000178A4, symSize: 0x28 }
  - { offsetInCU: 0x46D8B, offset: 0x46D8B, size: 0x8, addend: 0x0, symName: __ZNSt12_Vector_baseIiSaIiEE17_M_create_storageEm, symObjAddr: 0x15C6C, symBinAddr: 0x100017844, symSize: 0x60 }
  - { offsetInCU: 0x46E1B, offset: 0x46E1B, size: 0x8, addend: 0x0, symName: __ZNSt12_Vector_baseIiSaIiEE12_Vector_implC1ERKS0_, symObjAddr: 0x15C20, symBinAddr: 0x1000177F8, symSize: 0x4C }
  - { offsetInCU: 0x46E70, offset: 0x46E70, size: 0x8, addend: 0x0, symName: __ZNSt6vectorIiSaIiEE11_S_max_sizeERKS0_, symObjAddr: 0x15BCC, symBinAddr: 0x1000177A4, symSize: 0x54 }
  - { offsetInCU: 0x46F2B, offset: 0x46F2B, size: 0x8, addend: 0x0, symName: __ZNSt13_Bvector_baseISaIbEE13_M_deallocateEv, symObjAddr: 0x15B3C, symBinAddr: 0x100017714, symSize: 0x90 }
  - { offsetInCU: 0x46FAF, offset: 0x46FAF, size: 0x8, addend: 0x0, symName: __ZNSt6vectorIbSaIbEE19_M_initialize_valueEb, symObjAddr: 0x15AD8, symBinAddr: 0x1000176B0, symSize: 0x64 }
  - { offsetInCU: 0x4700E, offset: 0x4700E, size: 0x8, addend: 0x0, symName: __ZNSt6vectorIbSaIbEE13_M_initializeEm, symObjAddr: 0x15A20, symBinAddr: 0x1000175F8, symSize: 0xB8 }
  - { offsetInCU: 0x470C6, offset: 0x470C6, size: 0x8, addend: 0x0, symName: __ZNSt13_Bvector_baseISaIbEEC2ERKS0_, symObjAddr: 0x159D4, symBinAddr: 0x1000175AC, symSize: 0x4C }
  - { offsetInCU: 0x47170, offset: 0x47170, size: 0x8, addend: 0x0, symName: __ZNSt12_Vector_baseIySaIyEE17_Vector_impl_data12_M_swap_dataERS2_, symObjAddr: 0x15988, symBinAddr: 0x100017560, symSize: 0x4C }
  - { offsetInCU: 0x471FB, offset: 0x471FB, size: 0x8, addend: 0x0, symName: __ZNSt6vectorIySaIyEEC1ERKS0_, symObjAddr: 0x15960, symBinAddr: 0x100017538, symSize: 0x28 }
  - { offsetInCU: 0x47211, offset: 0x47211, size: 0x8, addend: 0x0, symName: __ZNKSt12_Vector_baseIySaIyEE13get_allocatorEv, symObjAddr: 0x15910, symBinAddr: 0x1000174E8, symSize: 0x50 }
  - { offsetInCU: 0x472C0, offset: 0x472C0, size: 0x8, addend: 0x0, symName: __ZNK9__gnu_cxx17__normal_iteratorIPKP4NodeSt6vectorIS2_SaIS2_EEE4baseEv, symObjAddr: 0x158FC, symBinAddr: 0x1000174D4, symSize: 0x14 }
  - { offsetInCU: 0x47356, offset: 0x47356, size: 0x8, addend: 0x0, symName: __ZN9__gnu_cxx17__normal_iteratorIPKP4NodeSt6vectorIS2_SaIS2_EEEC1ERKS4_, symObjAddr: 0x158D4, symBinAddr: 0x1000174AC, symSize: 0x28 }
  - { offsetInCU: 0x4733D, offset: 0x4733D, size: 0x8, addend: 0x0, symName: __ZSt12__to_addressIP4NodeEPT_S3_, symObjAddr: 0x158C0, symBinAddr: 0x100017498, symSize: 0x14 }
  - { offsetInCU: 0x47375, offset: 0x47375, size: 0x8, addend: 0x0, symName: __ZN9__gnu_cxxmiIPP4NodeSt6vectorIS2_SaIS2_EEEENS_17__normal_iteratorIT_T0_E15difference_typeERKSA_SD_, symObjAddr: 0x15880, symBinAddr: 0x100017458, symSize: 0x40 }
  - { offsetInCU: 0x473C6, offset: 0x473C6, size: 0x8, addend: 0x0, symName: __ZNKSt6vectorIP4NodeSaIS1_EE12_M_check_lenEmPKc, symObjAddr: 0x157B0, symBinAddr: 0x100017388, symSize: 0xD0 }
  - { offsetInCU: 0x47467, offset: 0x47467, size: 0x8, addend: 0x0, symName: __ZSt7forwardIRKP4NodeEOT_RNSt16remove_referenceIS4_E4typeE, symObjAddr: 0x1579C, symBinAddr: 0x100017374, symSize: 0x14 }
  - { offsetInCU: 0x4749D, offset: 0x4749D, size: 0x8, addend: 0x0, symName: __ZNSt6vectorIP4NodeSaIS1_EE17_M_realloc_appendIJS1_EEEvDpOT_, symObjAddr: 0x155E0, symBinAddr: 0x1000171B8, symSize: 0x1BC }
  - { offsetInCU: 0x47671, offset: 0x47671, size: 0x8, addend: 0x0, symName: __ZZNSt6vectorIP4NodeSaIS1_EE17_M_realloc_appendIJS1_EEEvDpOT_EN6_GuardC1EPS1_mRS2_, symObjAddr: 0x1553C, symBinAddr: 0x100017114, symSize: 0x44 }
  - { offsetInCU: 0x476AF, offset: 0x476AF, size: 0x8, addend: 0x0, symName: __ZZNSt6vectorIP4NodeSaIS1_EE17_M_realloc_appendIJS1_EEEvDpOT_EN6_GuardD1Ev, symObjAddr: 0x15580, symBinAddr: 0x100017158, symSize: 0x60 }
  - { offsetInCU: 0x477A0, offset: 0x477A0, size: 0x8, addend: 0x0, symName: __ZSt7forwardIP4NodeEOT_RNSt16remove_referenceIS2_E4typeE, symObjAddr: 0x15528, symBinAddr: 0x100017100, symSize: 0x14 }
  - { offsetInCU: 0x477D2, offset: 0x477D2, size: 0x8, addend: 0x0, symName: __ZSt12__relocate_aIPP4NodeS2_SaIS1_EET0_T_S5_S4_RT1_, symObjAddr: 0x154CC, symBinAddr: 0x1000170A4, symSize: 0x5C }
  - { offsetInCU: 0x47872, offset: 0x47872, size: 0x8, addend: 0x0, symName: __ZNKSt12_Vector_baseIP4NodeSaIS1_EE19_M_get_Tp_allocatorEv, symObjAddr: 0x154B8, symBinAddr: 0x100017090, symSize: 0x14 }
  - { offsetInCU: 0x47898, offset: 0x47898, size: 0x8, addend: 0x0, symName: __ZNSt6vectorIP4NodeSaIS1_EE11_S_max_sizeERKS2_, symObjAddr: 0x15464, symBinAddr: 0x10001703C, symSize: 0x54 }
  - { offsetInCU: 0x4794F, offset: 0x4794F, size: 0x8, addend: 0x0, symName: __ZSt8_DestroyIPP4NodeEvT_S3_, symObjAddr: 0x1543C, symBinAddr: 0x100017014, symSize: 0x28 }
  - { offsetInCU: 0x479D9, offset: 0x479D9, size: 0x8, addend: 0x0, symName: __ZSt8_DestroyIPyEvT_S1_, symObjAddr: 0x15414, symBinAddr: 0x100016FEC, symSize: 0x28 }
  - { offsetInCU: 0x47A35, offset: 0x47A35, size: 0x8, addend: 0x0, symName: __ZNK9__gnu_cxx17__normal_iteratorIPKySt6vectorIySaIyEEE4baseEv, symObjAddr: 0x15400, symBinAddr: 0x100016FD8, symSize: 0x14 }
  - { offsetInCU: 0x47AC2, offset: 0x47AC2, size: 0x8, addend: 0x0, symName: __ZN9__gnu_cxx17__normal_iteratorIPKySt6vectorIySaIyEEEC1ERKS2_, symObjAddr: 0x153D8, symBinAddr: 0x100016FB0, symSize: 0x28 }
  - { offsetInCU: 0x47AB2, offset: 0x47AB2, size: 0x8, addend: 0x0, symName: __ZNSt6vectorIySaIyEE11_S_relocateEPyS2_S2_RS0_, symObjAddr: 0x153A4, symBinAddr: 0x100016F7C, symSize: 0x34 }
  - { offsetInCU: 0x47B45, offset: 0x47B45, size: 0x8, addend: 0x0, symName: __ZNSt12_Vector_baseIySaIyEE11_M_allocateEm, symObjAddr: 0x15354, symBinAddr: 0x100016F2C, symSize: 0x50 }
  - { offsetInCU: 0x47BAD, offset: 0x47BAD, size: 0x8, addend: 0x0, symName: __ZNKSt6vectorIySaIyEE12_M_check_lenEmPKc, symObjAddr: 0x15284, symBinAddr: 0x100016E5C, symSize: 0xD0 }
  - { offsetInCU: 0x47C06, offset: 0x47C06, size: 0x8, addend: 0x0, symName: __ZSt27__uninitialized_default_n_aIPymyET_S1_T0_RSaIT1_E, symObjAddr: 0x1525C, symBinAddr: 0x100016E34, symSize: 0x28 }
  - { offsetInCU: 0x47C69, offset: 0x47C69, size: 0x8, addend: 0x0, symName: __ZNKSt6vectorIySaIyEE8max_sizeEv, symObjAddr: 0x1523C, symBinAddr: 0x100016E14, symSize: 0x20 }
  - { offsetInCU: 0x47C93, offset: 0x47C93, size: 0x8, addend: 0x0, symName: __ZNKSt8_Rb_treeIiiSt9_IdentityIiESt4lessIiESaIiEE9_M_mbeginEv, symObjAddr: 0x15224, symBinAddr: 0x100016DFC, symSize: 0x18 }
  - { offsetInCU: 0x47CBD, offset: 0x47CBD, size: 0x8, addend: 0x0, symName: __ZNSt8_Rb_treeIiiSt9_IdentityIiESt4lessIiESaIiEE12_M_drop_nodeEPSt13_Rb_tree_nodeIiE, symObjAddr: 0x151F0, symBinAddr: 0x100016DC8, symSize: 0x34 }
  - { offsetInCU: 0x47CF4, offset: 0x47CF4, size: 0x8, addend: 0x0, symName: __ZNSt8_Rb_treeIiiSt9_IdentityIiESt4lessIiESaIiEE7_S_leftEPSt18_Rb_tree_node_base, symObjAddr: 0x151D8, symBinAddr: 0x100016DB0, symSize: 0x18 }
  - { offsetInCU: 0x47D1E, offset: 0x47D1E, size: 0x8, addend: 0x0, symName: __ZNSt8_Rb_treeIiiSt9_IdentityIiESt4lessIiESaIiEE8_S_rightEPSt18_Rb_tree_node_base, symObjAddr: 0x151C0, symBinAddr: 0x100016D98, symSize: 0x18 }
  - { offsetInCU: 0x47DC6, offset: 0x47DC6, size: 0x8, addend: 0x0, symName: __ZNKSt7__cxx1112basic_stringIcSt11char_traitsIcESaIcEE8_M_limitEmm, symObjAddr: 0x15154, symBinAddr: 0x100016D2C, symSize: 0x6C }
  - { offsetInCU: 0x47E1F, offset: 0x47E1F, size: 0x8, addend: 0x0, symName: __ZNSt7__cxx1112basic_stringIcSt11char_traitsIcESaIcEE11_S_allocateERS3_m, symObjAddr: 0x15110, symBinAddr: 0x100016CE8, symSize: 0x44 }
  - { offsetInCU: 0x47EC6, offset: 0x47EC6, size: 0x8, addend: 0x0, symName: __ZNSt7__cxx1112basic_stringIcSt11char_traitsIcESaIcEE13_S_copy_charsEPcS5_S5_, symObjAddr: 0x150D4, symBinAddr: 0x100016CAC, symSize: 0x3C }
  - { offsetInCU: 0x47F3D, offset: 0x47F3D, size: 0x8, addend: 0x0, symName: __ZSt11__bit_widthImEiT_, symObjAddr: 0x150A4, symBinAddr: 0x100016C7C, symSize: 0x30 }
  - { offsetInCU: 0x47FCD, offset: 0x47FCD, size: 0x8, addend: 0x0, symName: __ZNSt7__cxx1112basic_stringIcSt11char_traitsIcESaIcEE7replaceEmmPKcm, symObjAddr: 0x15038, symBinAddr: 0x100016C10, symSize: 0x6C }
  - { offsetInCU: 0x48037, offset: 0x48037, size: 0x8, addend: 0x0, symName: __ZNSt7__cxx1112basic_stringIcSt11char_traitsIcESaIcEE13_S_copy_charsEPcPKcS7_, symObjAddr: 0x14FFC, symBinAddr: 0x100016BD4, symSize: 0x3C }
  - { offsetInCU: 0x480C8, offset: 0x480C8, size: 0x8, addend: 0x0, symName: __ZNKSt7__cxx1112basic_stringIcSt11char_traitsIcESaIcEE13_M_local_dataEv, symObjAddr: 0x14FDC, symBinAddr: 0x100016BB4, symSize: 0x20 }
  - { offsetInCU: 0x480F6, offset: 0x480F6, size: 0x8, addend: 0x0, symName: __ZNSt7__cxx1112basic_stringIcSt11char_traitsIcESaIcEE9_M_createERmm, symObjAddr: 0x14EE8, symBinAddr: 0x100016AC0, symSize: 0xF4 }
  - { offsetInCU: 0x4815E, offset: 0x4815E, size: 0x8, addend: 0x0, symName: __ZNSt19__ptr_traits_ptr_toIPccLb0EE10pointer_toERc, symObjAddr: 0x14ECC, symBinAddr: 0x100016AA4, symSize: 0x1C }
  - { offsetInCU: 0x4818B, offset: 0x4818B, size: 0x8, addend: 0x0, symName: __ZNSt6vectorIiSaIiEE17_M_default_appendEm, symObjAddr: 0x14CC0, symBinAddr: 0x100016898, symSize: 0x20C }
  - { offsetInCU: 0x48367, offset: 0x48367, size: 0x8, addend: 0x0, symName: __ZZNSt6vectorIiSaIiEE17_M_default_appendEmEN6_GuardC1EPimRS0_, symObjAddr: 0x14C1C, symBinAddr: 0x1000167F4, symSize: 0x44 }
  - { offsetInCU: 0x483A7, offset: 0x483A7, size: 0x8, addend: 0x0, symName: __ZZNSt6vectorIiSaIiEE17_M_default_appendEmEN6_GuardD1Ev, symObjAddr: 0x14C60, symBinAddr: 0x100016838, symSize: 0x60 }
  - { offsetInCU: 0x483D0, offset: 0x483D0, size: 0x8, addend: 0x0, symName: __ZNKSt6vectorISt5tupleIJiiiEESaIS1_EE4sizeEv, symObjAddr: 0x14BE8, symBinAddr: 0x1000167C0, symSize: 0x34 }
  - { offsetInCU: 0x483F6, offset: 0x483F6, size: 0x8, addend: 0x0, symName: __ZSt6__sortIN9__gnu_cxx17__normal_iteratorIPSt5tupleIJiiiEESt6vectorIS3_SaIS3_EEEENS0_5__ops15_Iter_less_iterEEvT_SB_T0_, symObjAddr: 0x14B70, symBinAddr: 0x100016748, symSize: 0x78 }
  - { offsetInCU: 0x484CC, offset: 0x484CC, size: 0x8, addend: 0x0, symName: __ZN9__gnu_cxx17__normal_iteratorIPSt5tupleIJiiiEESt6vectorIS2_SaIS2_EEEC1ERKS3_, symObjAddr: 0x14B48, symBinAddr: 0x100016720, symSize: 0x28 }
  - { offsetInCU: 0x484AF, offset: 0x484AF, size: 0x8, addend: 0x0, symName: __ZNSt6vectorISt5tupleIJiiiEESaIS1_EE4backEv, symObjAddr: 0x14ACC, symBinAddr: 0x1000166A4, symSize: 0x7C }
  - { offsetInCU: 0x484FE, offset: 0x484FE, size: 0x8, addend: 0x0, symName: __ZNSt6vectorISt5tupleIJiiiEESaIS1_EE17_M_realloc_appendIJRiS5_S5_EEEvDpOT_, symObjAddr: 0x14870, symBinAddr: 0x100016448, symSize: 0x25C }
  - { offsetInCU: 0x486FE, offset: 0x486FE, size: 0x8, addend: 0x0, symName: __ZZNSt6vectorISt5tupleIJiiiEESaIS1_EE17_M_realloc_appendIJRiS5_S5_EEEvDpOT_EN6_GuardC1EPS1_mRS2_, symObjAddr: 0x147CC, symBinAddr: 0x1000163A4, symSize: 0x44 }
  - { offsetInCU: 0x4873C, offset: 0x4873C, size: 0x8, addend: 0x0, symName: __ZZNSt6vectorISt5tupleIJiiiEESaIS1_EE17_M_realloc_appendIJRiS5_S5_EEEvDpOT_EN6_GuardD1Ev, symObjAddr: 0x14810, symBinAddr: 0x1000163E8, symSize: 0x60 }
  - { offsetInCU: 0x48894, offset: 0x48894, size: 0x8, addend: 0x0, symName: __ZNSt12_Vector_baseISt5tupleIJiiiEESaIS1_EE19_M_get_Tp_allocatorEv, symObjAddr: 0x147B8, symBinAddr: 0x100016390, symSize: 0x14 }
  - { offsetInCU: 0x488BE, offset: 0x488BE, size: 0x8, addend: 0x0, symName: __ZNSt12_Vector_baseISt5tupleIJiiiEESaIS1_EE13_M_deallocateEPS1_m, symObjAddr: 0x14760, symBinAddr: 0x100016338, symSize: 0x58 }
  - { offsetInCU: 0x4898C, offset: 0x4898C, size: 0x8, addend: 0x0, symName: __ZNSt15__new_allocatorISt5tupleIJiiiEEED2Ev, symObjAddr: 0x1474C, symBinAddr: 0x100016324, symSize: 0x14 }
  - { offsetInCU: 0x489E3, offset: 0x489E3, size: 0x8, addend: 0x0, symName: __ZNSt12_Vector_baseISt5tupleIJiiiEESaIS1_EE17_Vector_impl_dataC2Ev, symObjAddr: 0x14720, symBinAddr: 0x1000162F8, symSize: 0x2C }
  - { offsetInCU: 0x489E0, offset: 0x489E0, size: 0x8, addend: 0x0, symName: __ZNSt6vectorIbSaIbEE6insertESt19_Bit_const_iteratormRKb, symObjAddr: 0x14670, symBinAddr: 0x100016248, symSize: 0xB0 }
  - { offsetInCU: 0x48A52, offset: 0x48A52, size: 0x8, addend: 0x0, symName: __ZNSt6vectorIbSaIbEE3endEv, symObjAddr: 0x14638, symBinAddr: 0x100016210, symSize: 0x38 }
  - { offsetInCU: 0x48A7C, offset: 0x48A7C, size: 0x8, addend: 0x0, symName: __ZNSt6vectorIbSaIbEE15_M_erase_at_endESt13_Bit_iterator, symObjAddr: 0x145F8, symBinAddr: 0x1000161D0, symSize: 0x40 }
  - { offsetInCU: 0x48AB7, offset: 0x48AB7, size: 0x8, addend: 0x0, symName: __ZNKSt6vectorIbSaIbEE4sizeEv, symObjAddr: 0x145C0, symBinAddr: 0x100016198, symSize: 0x38 }
  - { offsetInCU: 0x48AE1, offset: 0x48AE1, size: 0x8, addend: 0x0, symName: __ZNKSt6vectorIS_IbSaIbEESaIS1_EE4sizeEv, symObjAddr: 0x1458C, symBinAddr: 0x100016164, symSize: 0x34 }
  - { offsetInCU: 0x48B46, offset: 0x48B46, size: 0x8, addend: 0x0, symName: __ZNSt12_Vector_baseISt6vectorIbSaIbEESaIS2_EE19_M_get_Tp_allocatorEv, symObjAddr: 0x14578, symBinAddr: 0x100016150, symSize: 0x14 }
  - { offsetInCU: 0x48B70, offset: 0x48B70, size: 0x8, addend: 0x0, symName: __ZNSt6vectorIS_IbSaIbEESaIS1_EE21_M_default_initializeEm, symObjAddr: 0x14528, symBinAddr: 0x100016100, symSize: 0x50 }
  - { offsetInCU: 0x48BFD, offset: 0x48BFD, size: 0x8, addend: 0x0, symName: __ZNSt12_Vector_baseISt6vectorIbSaIbEESaIS2_EED2Ev, symObjAddr: 0x144CC, symBinAddr: 0x1000160A4, symSize: 0x5C }
  - { offsetInCU: 0x48C5E, offset: 0x48C5E, size: 0x8, addend: 0x0, symName: __ZNSt12_Vector_baseISt6vectorIbSaIbEESaIS2_EEC2EmRKS3_, symObjAddr: 0x14478, symBinAddr: 0x100016050, symSize: 0x54 }
  - { offsetInCU: 0x48CC6, offset: 0x48CC6, size: 0x8, addend: 0x0, symName: __ZNSt12_Vector_baseISt6vectorIbSaIbEESaIS2_EE12_Vector_implD1Ev, symObjAddr: 0x1444C, symBinAddr: 0x100016024, symSize: 0x2C }
  - { offsetInCU: 0x48CCF, offset: 0x48CCF, size: 0x8, addend: 0x0, symName: __ZNSt6vectorIS_IbSaIbEESaIS1_EE17_S_check_init_lenEmRKS2_, symObjAddr: 0x143C8, symBinAddr: 0x100015FA0, symSize: 0x84 }
  - { offsetInCU: 0x48DD3, offset: 0x48DD3, size: 0x8, addend: 0x0, symName: __ZNSt15__new_allocatorISt6vectorIbSaIbEEED2Ev, symObjAddr: 0x143B4, symBinAddr: 0x100015F8C, symSize: 0x14 }
  - { offsetInCU: 0x48DE5, offset: 0x48DE5, size: 0x8, addend: 0x0, symName: __ZNSt8_Rb_treeIiiSt9_IdentityIiESt4lessIiESaIiEE5clearEv, symObjAddr: 0x1437C, symBinAddr: 0x100015F54, symSize: 0x38 }
  - { offsetInCU: 0x48E0F, offset: 0x48E0F, size: 0x8, addend: 0x0, symName: __ZNSt6vectorIdSaIdEE15_M_erase_at_endEPd, symObjAddr: 0x142F4, symBinAddr: 0x100015ECC, symSize: 0x88 }
  - { offsetInCU: 0x48EA4, offset: 0x48EA4, size: 0x8, addend: 0x0, symName: __ZNSt6vectorIdSaIdEE14_M_fill_insertEN9__gnu_cxx17__normal_iteratorIPdS1_EEmRKd, symObjAddr: 0x13EA8, symBinAddr: 0x100015A80, symSize: 0x44C }
  - { offsetInCU: 0x49078, offset: 0x49078, size: 0x8, addend: 0x0, symName: __ZSt12__get_helperILm1EdJEERT0_RSt11_Tuple_implIXT_EJS0_DpT1_EE, symObjAddr: 0x13E8C, symBinAddr: 0x100015A64, symSize: 0x1C }
  - { offsetInCU: 0x490BA, offset: 0x490BA, size: 0x8, addend: 0x0, symName: __ZSt12__get_helperILm0ESt6vectorIdSaIdEEJdEERT0_RSt11_Tuple_implIXT_EJS3_DpT1_EE, symObjAddr: 0x13E70, symBinAddr: 0x100015A48, symSize: 0x1C }
  - { offsetInCU: 0x49108, offset: 0x49108, size: 0x8, addend: 0x0, symName: __ZN9__gnu_cxxeqIPKiSt6vectorIiSaIiEEEEbRKNS_17__normal_iteratorIT_T0_EESB_, symObjAddr: 0x13E2C, symBinAddr: 0x100015A04, symSize: 0x44 }
  - { offsetInCU: 0x49159, offset: 0x49159, size: 0x8, addend: 0x0, symName: __ZNSt6vectorIP4NodeSaIS1_EE15_M_erase_at_endEPS1_, symObjAddr: 0x13DA4, symBinAddr: 0x10001597C, symSize: 0x88 }
  - { offsetInCU: 0x491EE, offset: 0x491EE, size: 0x8, addend: 0x0, symName: __ZNSt6vectorIP4NodeSaIS1_EE4swapERS3_, symObjAddr: 0x13CDC, symBinAddr: 0x1000158B4, symSize: 0xC8 }
  - { offsetInCU: 0x492D4, offset: 0x492D4, size: 0x8, addend: 0x0, symName: __ZNSt6vectorIiSaIiEE15_M_erase_at_endEPi, symObjAddr: 0x13C54, symBinAddr: 0x10001582C, symSize: 0x88 }
  - { offsetInCU: 0x49369, offset: 0x49369, size: 0x8, addend: 0x0, symName: __ZNSt6vectorIiSaIiEE14_M_fill_insertEN9__gnu_cxx17__normal_iteratorIPiS1_EEmRKi, symObjAddr: 0x13808, symBinAddr: 0x1000153E0, symSize: 0x44C }
  - { offsetInCU: 0x495C9, offset: 0x495C9, size: 0x8, addend: 0x0, symName: __ZNSt11_Tuple_implILm0EJSt6vectorIdSaIdEEdEEC2IRS2_JRdEvEEOT_DpOT0_, symObjAddr: 0x137AC, symBinAddr: 0x100015384, symSize: 0x5C }
  - { offsetInCU: 0x495DE, offset: 0x495DE, size: 0x8, addend: 0x0, symName: __ZSt7forwardIRdEOT_RNSt16remove_referenceIS1_E4typeE, symObjAddr: 0x13798, symBinAddr: 0x100015370, symSize: 0x14 }
  - { offsetInCU: 0x49616, offset: 0x49616, size: 0x8, addend: 0x0, symName: __ZSt7forwardIRSt6vectorIdSaIdEEEOT_RNSt16remove_referenceIS4_E4typeE, symObjAddr: 0x13784, symBinAddr: 0x10001535C, symSize: 0x14 }
  - { offsetInCU: 0x49648, offset: 0x49648, size: 0x8, addend: 0x0, symName: __ZNSt6chrono13duration_castINS_8durationIdSt5ratioILl1ELl1EEEExS2_ILl1ELl1000000000EEEENSt9enable_ifIXsrNS_13__is_durationIT_EE5valueES8_E4typeERKNS1_IT0_T1_EE, symObjAddr: 0x13758, symBinAddr: 0x100015330, symSize: 0x2C }
  - { offsetInCU: 0x496A3, offset: 0x496A3, size: 0x8, addend: 0x0, symName: __ZNSt15_Deque_iteratorIdRdPdEmmEv, symObjAddr: 0x136EC, symBinAddr: 0x1000152C4, symSize: 0x6C }
  - { offsetInCU: 0x496CD, offset: 0x496CD, size: 0x8, addend: 0x0, symName: __ZNKSt15_Deque_iteratorIdRdPdEdeEv, symObjAddr: 0x136D4, symBinAddr: 0x1000152AC, symSize: 0x18 }
  - { offsetInCU: 0x496F7, offset: 0x496F7, size: 0x8, addend: 0x0, symName: __ZNSt5dequeIdSaIdEE16_M_pop_front_auxEv, symObjAddr: 0x13640, symBinAddr: 0x100015218, symSize: 0x94 }
  - { offsetInCU: 0x497A8, offset: 0x497A8, size: 0x8, addend: 0x0, symName: __ZNKSt5dequeIdSaIdEE5emptyEv, symObjAddr: 0x13610, symBinAddr: 0x1000151E8, symSize: 0x30 }
  - { offsetInCU: 0x497CE, offset: 0x497CE, size: 0x8, addend: 0x0, symName: __ZStmiRKSt15_Deque_iteratorIdRdPdES4_, symObjAddr: 0x1357C, symBinAddr: 0x100015154, symSize: 0x94 }
  - { offsetInCU: 0x4980D, offset: 0x4980D, size: 0x8, addend: 0x0, symName: __ZNK9__gnu_cxx17__normal_iteratorIPdSt6vectorIdSaIdEEEdeEv, symObjAddr: 0x13564, symBinAddr: 0x10001513C, symSize: 0x18 }
  - { offsetInCU: 0x49837, offset: 0x49837, size: 0x8, addend: 0x0, symName: __ZN9__gnu_cxx17__normal_iteratorIPdSt6vectorIdSaIdEEEppEv, symObjAddr: 0x1353C, symBinAddr: 0x100015114, symSize: 0x28 }
  - { offsetInCU: 0x4985D, offset: 0x4985D, size: 0x8, addend: 0x0, symName: __ZN9__gnu_cxxneIPdSt6vectorIdSaIdEEEEbRKNS_17__normal_iteratorIT_T0_EESA_, symObjAddr: 0x134F8, symBinAddr: 0x1000150D0, symSize: 0x44 }
  - { offsetInCU: 0x49910, offset: 0x49910, size: 0x8, addend: 0x0, symName: __ZN9__gnu_cxx17__normal_iteratorIPdSt6vectorIdSaIdEEEC1ERKS1_, symObjAddr: 0x134D0, symBinAddr: 0x1000150A8, symSize: 0x28 }
  - { offsetInCU: 0x49905, offset: 0x49905, size: 0x8, addend: 0x0, symName: __ZNSt5dequeIdSaIdEE16_M_push_back_auxIJRKdEEEvDpOT_, symObjAddr: 0x133B0, symBinAddr: 0x100014F88, symSize: 0x120 }
  - { offsetInCU: 0x499FA, offset: 0x499FA, size: 0x8, addend: 0x0, symName: __ZNSt5dequeIdSaIdEE12emplace_backIJdEEERdDpOT_, symObjAddr: 0x132D4, symBinAddr: 0x100014EAC, symSize: 0xDC }
  - { offsetInCU: 0x49AAC, offset: 0x49AAC, size: 0x8, addend: 0x0, symName: __ZSt4moveIRdEONSt16remove_referenceIT_E4typeEOS2_, symObjAddr: 0x132C0, symBinAddr: 0x100014E98, symSize: 0x14 }
  - { offsetInCU: 0x49AE2, offset: 0x49AE2, size: 0x8, addend: 0x0, symName: __ZNSt5dequeIdSaIdEE15_M_destroy_dataESt15_Deque_iteratorIdRdPdES5_RKS0_, symObjAddr: 0x132A0, symBinAddr: 0x100014E78, symSize: 0x20 }
  - { offsetInCU: 0x49B3D, offset: 0x49B3D, size: 0x8, addend: 0x0, symName: __ZNSt11_Deque_baseIdSaIdEE19_M_get_Tp_allocatorEv, symObjAddr: 0x1328C, symBinAddr: 0x100014E64, symSize: 0x14 }
  - { offsetInCU: 0x49B67, offset: 0x49B67, size: 0x8, addend: 0x0, symName: __ZNSt5dequeIdSaIdEE3endEv, symObjAddr: 0x13254, symBinAddr: 0x100014E2C, symSize: 0x38 }
  - { offsetInCU: 0x49B91, offset: 0x49B91, size: 0x8, addend: 0x0, symName: __ZNSt5dequeIdSaIdEE5beginEv, symObjAddr: 0x1321C, symBinAddr: 0x100014DF4, symSize: 0x38 }
  - { offsetInCU: 0x49BBB, offset: 0x49BBB, size: 0x8, addend: 0x0, symName: __ZNSt11_Deque_baseIdSaIdEE17_M_deallocate_mapEPPdm, symObjAddr: 0x131BC, symBinAddr: 0x100014D94, symSize: 0x60 }
  - { offsetInCU: 0x49C6C, offset: 0x49C6C, size: 0x8, addend: 0x0, symName: __ZNSt11_Deque_baseIdSaIdEE16_M_destroy_nodesEPPdS3_, symObjAddr: 0x1315C, symBinAddr: 0x100014D34, symSize: 0x60 }
  - { offsetInCU: 0x49CDC, offset: 0x49CDC, size: 0x8, addend: 0x0, symName: __ZNSt11_Deque_baseIdSaIdEE17_M_initialize_mapEm, symObjAddr: 0x12FD0, symBinAddr: 0x100014BA8, symSize: 0x18C }
  - { offsetInCU: 0x49D8C, offset: 0x49D8C, size: 0x8, addend: 0x0, symName: __ZNSt11_Deque_baseIdSaIdEE11_Deque_implC1Ev, symObjAddr: 0x12F98, symBinAddr: 0x100014B70, symSize: 0x38 }
  - { offsetInCU: 0x49DCD, offset: 0x49DCD, size: 0x8, addend: 0x0, symName: __ZSt22__uninitialized_copy_aIN9__gnu_cxx17__normal_iteratorIPKdSt6vectorIdSaIdEEEEPddET0_T_SA_S9_RSaIT1_E, symObjAddr: 0x12F68, symBinAddr: 0x100014B40, symSize: 0x30 }
  - { offsetInCU: 0x49E56, offset: 0x49E56, size: 0x8, addend: 0x0, symName: __ZNSt6vectorIdSaIdEE18_M_fill_initializeEmRKd, symObjAddr: 0x12F10, symBinAddr: 0x100014AE8, symSize: 0x58 }
  - { offsetInCU: 0x49E9E, offset: 0x49E9E, size: 0x8, addend: 0x0, symName: __ZSt22__uninitialized_copy_aIPdS0_dET0_T_S2_S1_RSaIT1_E, symObjAddr: 0x12EE0, symBinAddr: 0x100014AB8, symSize: 0x30 }
  - { offsetInCU: 0x49F0E, offset: 0x49F0E, size: 0x8, addend: 0x0, symName: __ZSt4copyIPdS0_ET0_T_S2_S1_, symObjAddr: 0x12E98, symBinAddr: 0x100014A70, symSize: 0x48 }
  - { offsetInCU: 0x49FA7, offset: 0x49FA7, size: 0x8, addend: 0x0, symName: __ZSt4copyIN9__gnu_cxx17__normal_iteratorIPKdSt6vectorIdSaIdEEEENS1_IPdS6_EEET0_T_SB_SA_, symObjAddr: 0x12E50, symBinAddr: 0x100014A28, symSize: 0x48 }
  - { offsetInCU: 0x4A044, offset: 0x4A044, size: 0x8, addend: 0x0, symName: __ZNSt6vectorIdSaIdEE20_M_allocate_and_copyIN9__gnu_cxx17__normal_iteratorIPKdS1_EEEEPdmT_S9_, symObjAddr: 0x12DCC, symBinAddr: 0x1000149A4, symSize: 0x84 }
  - { offsetInCU: 0x4A0BB, offset: 0x4A0BB, size: 0x8, addend: 0x0, symName: __ZNKSt6vectorIdSaIdEE3endEv, symObjAddr: 0x12DA4, symBinAddr: 0x10001497C, symSize: 0x28 }
  - { offsetInCU: 0x4A0E5, offset: 0x4A0E5, size: 0x8, addend: 0x0, symName: __ZNKSt6vectorIdSaIdEE5beginEv, symObjAddr: 0x12D80, symBinAddr: 0x100014958, symSize: 0x24 }
  - { offsetInCU: 0x4A10F, offset: 0x4A10F, size: 0x8, addend: 0x0, symName: __ZNKSt6vectorIdSaIdEE8capacityEv, symObjAddr: 0x12D58, symBinAddr: 0x100014930, symSize: 0x28 }
  - { offsetInCU: 0x4A166, offset: 0x4A166, size: 0x8, addend: 0x0, symName: __ZNSt6vectorIdSaIdEE5clearEv, symObjAddr: 0x12D2C, symBinAddr: 0x100014904, symSize: 0x2C }
  - { offsetInCU: 0x4A1A2, offset: 0x4A1A2, size: 0x8, addend: 0x0, symName: __ZNKSt12_Vector_baseIdSaIdEE19_M_get_Tp_allocatorEv, symObjAddr: 0x12D18, symBinAddr: 0x1000148F0, symSize: 0x14 }
  - { offsetInCU: 0x4A1CC, offset: 0x4A1CC, size: 0x8, addend: 0x0, symName: __ZNSt12_Vector_baseIdSaIdEE19_M_get_Tp_allocatorEv, symObjAddr: 0x12D04, symBinAddr: 0x1000148DC, symSize: 0x14 }
  - { offsetInCU: 0x4A1F6, offset: 0x4A1F6, size: 0x8, addend: 0x0, symName: __ZNSt6vectorIdSaIdEE21_M_default_initializeEm, symObjAddr: 0x12CB4, symBinAddr: 0x10001488C, symSize: 0x50 }
  - { offsetInCU: 0x4A288, offset: 0x4A288, size: 0x8, addend: 0x0, symName: __ZNSt12_Vector_baseIdSaIdEEC2EmRKS0_, symObjAddr: 0x12C60, symBinAddr: 0x100014838, symSize: 0x54 }
  - { offsetInCU: 0x4A29B, offset: 0x4A29B, size: 0x8, addend: 0x0, symName: __ZNSt6vectorIdSaIdEE17_S_check_init_lenEmRKS0_, symObjAddr: 0x12BDC, symBinAddr: 0x1000147B4, symSize: 0x84 }
  - { offsetInCU: 0x4A367, offset: 0x4A367, size: 0x8, addend: 0x0, symName: __ZNKSt6vectorISt4pairIiiESaIS1_EE4sizeEv, symObjAddr: 0x12BB4, symBinAddr: 0x10001478C, symSize: 0x28 }
  - { offsetInCU: 0x4A3CC, offset: 0x4A3CC, size: 0x8, addend: 0x0, symName: __ZNSt12_Vector_baseISt4pairIiiESaIS1_EE19_M_get_Tp_allocatorEv, symObjAddr: 0x12BA0, symBinAddr: 0x100014778, symSize: 0x14 }
  - { offsetInCU: 0x4A3F6, offset: 0x4A3F6, size: 0x8, addend: 0x0, symName: __ZNSt6vectorISt4pairIiiESaIS1_EE18_M_fill_initializeEmRKS1_, symObjAddr: 0x12B48, symBinAddr: 0x100014720, symSize: 0x58 }
  - { offsetInCU: 0x4A48E, offset: 0x4A48E, size: 0x8, addend: 0x0, symName: __ZNSt12_Vector_baseISt4pairIiiESaIS1_EED2Ev, symObjAddr: 0x12AF8, symBinAddr: 0x1000146D0, symSize: 0x50 }
  - { offsetInCU: 0x4A4EF, offset: 0x4A4EF, size: 0x8, addend: 0x0, symName: __ZNSt12_Vector_baseISt4pairIiiESaIS1_EEC2EmRKS2_, symObjAddr: 0x12AA4, symBinAddr: 0x10001467C, symSize: 0x54 }
  - { offsetInCU: 0x4A557, offset: 0x4A557, size: 0x8, addend: 0x0, symName: __ZNSt12_Vector_baseISt4pairIiiESaIS1_EE12_Vector_implD1Ev, symObjAddr: 0x12A78, symBinAddr: 0x100014650, symSize: 0x2C }
  - { offsetInCU: 0x4A566, offset: 0x4A566, size: 0x8, addend: 0x0, symName: __ZNSt6vectorISt4pairIiiESaIS1_EE17_S_check_init_lenEmRKS2_, symObjAddr: 0x129F4, symBinAddr: 0x1000145CC, symSize: 0x84 }
  - { offsetInCU: 0x4A664, offset: 0x4A664, size: 0x8, addend: 0x0, symName: __ZNSt15__new_allocatorISt4pairIiiEED2Ev, symObjAddr: 0x129E0, symBinAddr: 0x1000145B8, symSize: 0x14 }
  - { offsetInCU: 0x4A67C, offset: 0x4A67C, size: 0x8, addend: 0x0, symName: __ZNSt7__cxx1112basic_stringIcSt11char_traitsIcESaIcEE6appendERKS4_, symObjAddr: 0x1299C, symBinAddr: 0x100014574, symSize: 0x44 }
  - { offsetInCU: 0x4A6B7, offset: 0x4A6B7, size: 0x8, addend: 0x0, symName: __ZNKSt7__cxx1112basic_stringIcSt11char_traitsIcESaIcEE8capacityEv, symObjAddr: 0x12964, symBinAddr: 0x10001453C, symSize: 0x38 }
  - { offsetInCU: 0x4A6E1, offset: 0x4A6E1, size: 0x8, addend: 0x0, symName: __ZNSt7__cxx1112basic_stringIcSt11char_traitsIcESaIcEE6appendEPKc, symObjAddr: 0x12918, symBinAddr: 0x1000144F0, symSize: 0x4C }
  - { offsetInCU: 0x4A72D, offset: 0x4A72D, size: 0x8, addend: 0x0, symName: __ZNKSt6vectorIxSaIxEE4sizeEv, symObjAddr: 0x128F0, symBinAddr: 0x1000144C8, symSize: 0x28 }
  - { offsetInCU: 0x4A757, offset: 0x4A757, size: 0x8, addend: 0x0, symName: __ZNKSt6vectorIS_IxSaIxEESaIS1_EE4sizeEv, symObjAddr: 0x128BC, symBinAddr: 0x100014494, symSize: 0x34 }
  - { offsetInCU: 0x4A7BC, offset: 0x4A7BC, size: 0x8, addend: 0x0, symName: __ZNSt12_Vector_baseISt6vectorIxSaIxEESaIS2_EE19_M_get_Tp_allocatorEv, symObjAddr: 0x128A8, symBinAddr: 0x100014480, symSize: 0x14 }
  - { offsetInCU: 0x4A7E6, offset: 0x4A7E6, size: 0x8, addend: 0x0, symName: __ZNSt6vectorIS_IxSaIxEESaIS1_EE18_M_fill_initializeEmRKS1_, symObjAddr: 0x12850, symBinAddr: 0x100014428, symSize: 0x58 }
  - { offsetInCU: 0x4A884, offset: 0x4A884, size: 0x8, addend: 0x0, symName: __ZNSt12_Vector_baseISt6vectorIxSaIxEESaIS2_EED2Ev, symObjAddr: 0x127F4, symBinAddr: 0x1000143CC, symSize: 0x5C }
  - { offsetInCU: 0x4A8E5, offset: 0x4A8E5, size: 0x8, addend: 0x0, symName: __ZNSt12_Vector_baseISt6vectorIxSaIxEESaIS2_EEC2EmRKS3_, symObjAddr: 0x127A0, symBinAddr: 0x100014378, symSize: 0x54 }
  - { offsetInCU: 0x4A94D, offset: 0x4A94D, size: 0x8, addend: 0x0, symName: __ZNSt12_Vector_baseISt6vectorIxSaIxEESaIS2_EE12_Vector_implD1Ev, symObjAddr: 0x12774, symBinAddr: 0x10001434C, symSize: 0x2C }
  - { offsetInCU: 0x4A956, offset: 0x4A956, size: 0x8, addend: 0x0, symName: __ZNSt6vectorIS_IxSaIxEESaIS1_EE17_S_check_init_lenEmRKS2_, symObjAddr: 0x126F0, symBinAddr: 0x1000142C8, symSize: 0x84 }
  - { offsetInCU: 0x4AA5A, offset: 0x4AA5A, size: 0x8, addend: 0x0, symName: __ZNSt15__new_allocatorISt6vectorIxSaIxEEED2Ev, symObjAddr: 0x126DC, symBinAddr: 0x1000142B4, symSize: 0x14 }
  - { offsetInCU: 0x4AAA7, offset: 0x4AAA7, size: 0x8, addend: 0x0, symName: __ZNSt12_Vector_baseIxSaIxEE19_M_get_Tp_allocatorEv, symObjAddr: 0x126C8, symBinAddr: 0x1000142A0, symSize: 0x14 }
  - { offsetInCU: 0x4AAD1, offset: 0x4AAD1, size: 0x8, addend: 0x0, symName: __ZNSt6vectorIxSaIxEE18_M_fill_initializeEmRKx, symObjAddr: 0x12670, symBinAddr: 0x100014248, symSize: 0x58 }
  - { offsetInCU: 0x4AB5D, offset: 0x4AB5D, size: 0x8, addend: 0x0, symName: __ZNSt12_Vector_baseIxSaIxEED2Ev, symObjAddr: 0x12620, symBinAddr: 0x1000141F8, symSize: 0x50 }
  - { offsetInCU: 0x4ABBE, offset: 0x4ABBE, size: 0x8, addend: 0x0, symName: __ZNSt12_Vector_baseIxSaIxEEC2EmRKS0_, symObjAddr: 0x125CC, symBinAddr: 0x1000141A4, symSize: 0x54 }
  - { offsetInCU: 0x4AC26, offset: 0x4AC26, size: 0x8, addend: 0x0, symName: __ZNSt12_Vector_baseIxSaIxEE12_Vector_implD1Ev, symObjAddr: 0x125A0, symBinAddr: 0x100014178, symSize: 0x2C }
  - { offsetInCU: 0x4AC41, offset: 0x4AC41, size: 0x8, addend: 0x0, symName: __ZNSt6vectorIxSaIxEE17_S_check_init_lenEmRKS0_, symObjAddr: 0x1251C, symBinAddr: 0x1000140F4, symSize: 0x84 }
  - { offsetInCU: 0x4AD35, offset: 0x4AD35, size: 0x8, addend: 0x0, symName: __ZNSt15__new_allocatorIxED2Ev, symObjAddr: 0x12508, symBinAddr: 0x1000140E0, symSize: 0x14 }
  - { offsetInCU: 0x4AD57, offset: 0x4AD57, size: 0x8, addend: 0x0, symName: __ZNSt6vectorIiSaIiEE18_M_fill_initializeEmRKi, symObjAddr: 0x124B0, symBinAddr: 0x100014088, symSize: 0x58 }
  - { offsetInCU: 0x4ADA3, offset: 0x4ADA3, size: 0x8, addend: 0x0, symName: __ZNSt6vectorIiSaIiEE12emplace_backIJiEEERiDpOT_, symObjAddr: 0x123D8, symBinAddr: 0x100013FB0, symSize: 0xD8 }
  - { offsetInCU: 0x4AE52, offset: 0x4AE52, size: 0x8, addend: 0x0, symName: __ZNSt6vectorIiSaIiEE4backEv, symObjAddr: 0x1235C, symBinAddr: 0x100013F34, symSize: 0x7C }
  - { offsetInCU: 0x4AEA1, offset: 0x4AEA1, size: 0x8, addend: 0x0, symName: __ZNSt6vectorIiSaIiEE17_M_realloc_appendIJRiEEEvDpOT_, symObjAddr: 0x121A0, symBinAddr: 0x100013D78, symSize: 0x1BC }
  - { offsetInCU: 0x4B06B, offset: 0x4B06B, size: 0x8, addend: 0x0, symName: __ZZNSt6vectorIiSaIiEE17_M_realloc_appendIJRiEEEvDpOT_EN6_GuardC1EPimRS0_, symObjAddr: 0x120FC, symBinAddr: 0x100013CD4, symSize: 0x44 }
  - { offsetInCU: 0x4B0AB, offset: 0x4B0AB, size: 0x8, addend: 0x0, symName: __ZZNSt6vectorIiSaIiEE17_M_realloc_appendIJRiEEEvDpOT_EN6_GuardD1Ev, symObjAddr: 0x12140, symBinAddr: 0x100013D18, symSize: 0x60 }
  - { offsetInCU: 0x4B19E, offset: 0x4B19E, size: 0x8, addend: 0x0, symName: __ZSt9__reverseIN9__gnu_cxx17__normal_iteratorIPiSt6vectorIiSaIiEEEEEvT_S7_St26random_access_iterator_tag, symObjAddr: 0x12080, symBinAddr: 0x100013C58, symSize: 0x7C }
  - { offsetInCU: 0x4B205, offset: 0x4B205, size: 0x8, addend: 0x0, symName: __ZNSt24uniform_int_distributionImEclISt23mersenne_twister_engineIjLm32ELm624ELm397ELm31ELj2567483615ELm11ELj4294967295ELm7ELj2636928640ELm15ELj4022730752ELm18ELj1812433253EEEEmRT_RKNS0_10param_typeE, symObjAddr: 0x11F40, symBinAddr: 0x100013B18, symSize: 0x140 }
  - { offsetInCU: 0x4B3D4, offset: 0x4B3D4, size: 0x8, addend: 0x0, symName: __ZNSt24uniform_int_distributionImE10param_typeC1Emm, symObjAddr: 0x11EC0, symBinAddr: 0x100013A98, symSize: 0x80 }
  - { offsetInCU: 0x4B42D, offset: 0x4B42D, size: 0x8, addend: 0x0, symName: __ZNSt24uniform_int_distributionImEC1Ev, symObjAddr: 0x11E98, symBinAddr: 0x100013A70, symSize: 0x28 }
  - { offsetInCU: 0x4B42C, offset: 0x4B42C, size: 0x8, addend: 0x0, symName: __ZSt22__gen_two_uniform_intsImRSt23mersenne_twister_engineIjLm32ELm624ELm397ELm31ELj2567483615ELm11ELj4294967295ELm7ELj2636928640ELm15ELj4022730752ELm18ELj1812433253EEESt4pairIT_S4_ES4_S4_OT0_, symObjAddr: 0x11E14, symBinAddr: 0x1000139EC, symSize: 0x84 }
  - { offsetInCU: 0x4B49C, offset: 0x4B49C, size: 0x8, addend: 0x0, symName: __ZSt9iter_swapIN9__gnu_cxx17__normal_iteratorIPiSt6vectorIiSaIiEEEES6_EvT_T0_, symObjAddr: 0x11DD0, symBinAddr: 0x1000139A8, symSize: 0x44 }
  - { offsetInCU: 0x4B4EB, offset: 0x4B4EB, size: 0x8, addend: 0x0, symName: __ZNSt24uniform_int_distributionImEclISt23mersenne_twister_engineIjLm32ELm624ELm397ELm31ELj2567483615ELm11ELj4294967295ELm7ELj2636928640ELm15ELj4022730752ELm18ELj1812433253EEEEmRT_, symObjAddr: 0x11DA4, symBinAddr: 0x10001397C, symSize: 0x2C }
  - { offsetInCU: 0x4B52E, offset: 0x4B52E, size: 0x8, addend: 0x0, symName: __ZN9__gnu_cxx17__normal_iteratorIPiSt6vectorIiSaIiEEEppEi, symObjAddr: 0x11D64, symBinAddr: 0x10001393C, symSize: 0x40 }
  - { offsetInCU: 0x4B5B9, offset: 0x4B5B9, size: 0x8, addend: 0x0, symName: __ZNSt24uniform_int_distributionImEC1Emm, symObjAddr: 0x11D34, symBinAddr: 0x10001390C, symSize: 0x30 }
  - { offsetInCU: 0x4B5CD, offset: 0x4B5CD, size: 0x8, addend: 0x0, symName: __ZNK9__gnu_cxx17__normal_iteratorIPiSt6vectorIiSaIiEEEplEl, symObjAddr: 0x11CF4, symBinAddr: 0x1000138CC, symSize: 0x40 }
  - { offsetInCU: 0x4B604, offset: 0x4B604, size: 0x8, addend: 0x0, symName: __ZN9__gnu_cxxmiIPiSt6vectorIiSaIiEEEENS_17__normal_iteratorIT_T0_E15difference_typeERKS8_SB_, symObjAddr: 0x11CB4, symBinAddr: 0x10001388C, symSize: 0x40 }
  - { offsetInCU: 0x4B651, offset: 0x4B651, size: 0x8, addend: 0x0, symName: __ZN9__gnu_cxxeqIPiSt6vectorIiSaIiEEEEbRKNS_17__normal_iteratorIT_T0_EESA_, symObjAddr: 0x11C70, symBinAddr: 0x100013848, symSize: 0x44 }
  - { offsetInCU: 0x4B6A7, offset: 0x4B6A7, size: 0x8, addend: 0x0, symName: __ZNSt23mersenne_twister_engineIjLm32ELm624ELm397ELm31ELj2567483615ELm11ELj4294967295ELm7ELj2636928640ELm15ELj4022730752ELm18ELj1812433253EE4seedEj, symObjAddr: 0x11BA4, symBinAddr: 0x10001377C, symSize: 0xCC }
  - { offsetInCU: 0x4B729, offset: 0x4B729, size: 0x8, addend: 0x0, symName: __ZNSt6vectorIiSaIiEE17_M_realloc_appendIJRKiEEEvDpOT_, symObjAddr: 0x119E8, symBinAddr: 0x1000135C0, symSize: 0x1BC }
  - { offsetInCU: 0x4B8F4, offset: 0x4B8F4, size: 0x8, addend: 0x0, symName: __ZZNSt6vectorIiSaIiEE17_M_realloc_appendIJRKiEEEvDpOT_EN6_GuardC1EPimRS0_, symObjAddr: 0x11944, symBinAddr: 0x10001351C, symSize: 0x44 }
  - { offsetInCU: 0x4B934, offset: 0x4B934, size: 0x8, addend: 0x0, symName: __ZZNSt6vectorIiSaIiEE17_M_realloc_appendIJRKiEEEvDpOT_EN6_GuardD1Ev, symObjAddr: 0x11988, symBinAddr: 0x100013560, symSize: 0x60 }
  - { offsetInCU: 0x4BA4C, offset: 0x4BA4C, size: 0x8, addend: 0x0, symName: __ZNSt12_Vector_baseIiSaIiEE17_Vector_impl_data12_M_swap_dataERS2_, symObjAddr: 0x118F8, symBinAddr: 0x1000134D0, symSize: 0x4C }
  - { offsetInCU: 0x4BAA4, offset: 0x4BAA4, size: 0x8, addend: 0x0, symName: __ZSt5equalIN9__gnu_cxx17__normal_iteratorIPKiSt6vectorIiSaIiEEEES7_EbT_S8_T0_, symObjAddr: 0x118CC, symBinAddr: 0x1000134A4, symSize: 0x2C }
  - { offsetInCU: 0x4BB06, offset: 0x4BB06, size: 0x8, addend: 0x0, symName: __ZNKSt6vectorIS_IiSaIiEESaIS1_EE4sizeEv, symObjAddr: 0x11898, symBinAddr: 0x100013470, symSize: 0x34 }
  - { offsetInCU: 0x4BB6B, offset: 0x4BB6B, size: 0x8, addend: 0x0, symName: __ZNSt12_Vector_baseISt6vectorIiSaIiEESaIS2_EE19_M_get_Tp_allocatorEv, symObjAddr: 0x11884, symBinAddr: 0x10001345C, symSize: 0x14 }
  - { offsetInCU: 0x4BB95, offset: 0x4BB95, size: 0x8, addend: 0x0, symName: __ZNSt6vectorIS_IiSaIiEESaIS1_EE18_M_fill_initializeEmRKS1_, symObjAddr: 0x1182C, symBinAddr: 0x100013404, symSize: 0x58 }
  - { offsetInCU: 0x4BC33, offset: 0x4BC33, size: 0x8, addend: 0x0, symName: __ZNSt12_Vector_baseISt6vectorIiSaIiEESaIS2_EED2Ev, symObjAddr: 0x117D0, symBinAddr: 0x1000133A8, symSize: 0x5C }
  - { offsetInCU: 0x4BC94, offset: 0x4BC94, size: 0x8, addend: 0x0, symName: __ZNSt12_Vector_baseISt6vectorIiSaIiEESaIS2_EEC2EmRKS3_, symObjAddr: 0x1177C, symBinAddr: 0x100013354, symSize: 0x54 }
  - { offsetInCU: 0x4BCFC, offset: 0x4BCFC, size: 0x8, addend: 0x0, symName: __ZNSt12_Vector_baseISt6vectorIiSaIiEESaIS2_EE12_Vector_implD1Ev, symObjAddr: 0x11750, symBinAddr: 0x100013328, symSize: 0x2C }
  - { offsetInCU: 0x4BD05, offset: 0x4BD05, size: 0x8, addend: 0x0, symName: __ZNSt6vectorIS_IiSaIiEESaIS1_EE17_S_check_init_lenEmRKS2_, symObjAddr: 0x116CC, symBinAddr: 0x1000132A4, symSize: 0x84 }
  - { offsetInCU: 0x4BE09, offset: 0x4BE09, size: 0x8, addend: 0x0, symName: __ZNSt15__new_allocatorISt6vectorIiSaIiEEED2Ev, symObjAddr: 0x116B8, symBinAddr: 0x100013290, symSize: 0x14 }
  - { offsetInCU: 0x4BE17, offset: 0x4BE17, size: 0x8, addend: 0x0, symName: __ZSt6__sortIN9__gnu_cxx17__normal_iteratorIPiSt6vectorIiSaIiEEEENS0_5__ops15_Iter_comp_iterIZ30shortest_processing_time_ordervEUliiE_EEEvT_SB_T0_, symObjAddr: 0x11648, symBinAddr: 0x100013220, symSize: 0x70 }
  - { offsetInCU: 0x4BE75, offset: 0x4BE75, size: 0x8, addend: 0x0, symName: __ZN9__gnu_cxx5__ops16__iter_comp_iterIZ30shortest_processing_time_ordervEUliiE_EENS0_15_Iter_comp_iterIT_EES4_, symObjAddr: 0x11610, symBinAddr: 0x1000131E8, symSize: 0x38 }
  - { offsetInCU: 0x4BEA7, offset: 0x4BEA7, size: 0x8, addend: 0x0, symName: __ZSt6__sortIN9__gnu_cxx17__normal_iteratorIPiSt6vectorIiSaIiEEEENS0_5__ops15_Iter_comp_iterIZ15greedy_backwardvEUliiE_EEEvT_SB_T0_, symObjAddr: 0x115A0, symBinAddr: 0x100013178, symSize: 0x70 }
  - { offsetInCU: 0x4BF05, offset: 0x4BF05, size: 0x8, addend: 0x0, symName: __ZN9__gnu_cxx5__ops16__iter_comp_iterIZ15greedy_backwardvEUliiE_EENS0_15_Iter_comp_iterIT_EES4_, symObjAddr: 0x11568, symBinAddr: 0x100013140, symSize: 0x38 }
  - { offsetInCU: 0x4BF37, offset: 0x4BF37, size: 0x8, addend: 0x0, symName: __ZSt22__uninitialized_copy_aIPiS0_iET0_T_S2_S1_RSaIT1_E, symObjAddr: 0x11538, symBinAddr: 0x100013110, symSize: 0x30 }
  - { offsetInCU: 0x4BFA7, offset: 0x4BFA7, size: 0x8, addend: 0x0, symName: __ZSt4copyIPiS0_ET0_T_S2_S1_, symObjAddr: 0x114F0, symBinAddr: 0x1000130C8, symSize: 0x48 }
  - { offsetInCU: 0x4C040, offset: 0x4C040, size: 0x8, addend: 0x0, symName: __ZSt4copyIN9__gnu_cxx17__normal_iteratorIPKiSt6vectorIiSaIiEEEENS1_IPiS6_EEET0_T_SB_SA_, symObjAddr: 0x114A8, symBinAddr: 0x100013080, symSize: 0x48 }
  - { offsetInCU: 0x4C0A2, offset: 0x4C0A2, size: 0x8, addend: 0x0, symName: __ZNSt6vectorIiSaIiEE20_M_allocate_and_copyIN9__gnu_cxx17__normal_iteratorIPKiS1_EEEEPimT_S9_, symObjAddr: 0x11424, symBinAddr: 0x100012FFC, symSize: 0x84 }
  - { offsetInCU: 0x4C119, offset: 0x4C119, size: 0x8, addend: 0x0, symName: __ZNKSt6vectorIiSaIiEE8capacityEv, symObjAddr: 0x113FC, symBinAddr: 0x100012FD4, symSize: 0x28 }
  - { offsetInCU: 0x4C17E, offset: 0x4C17E, size: 0x8, addend: 0x0, symName: __ZSt22__uninitialized_copy_aIN9__gnu_cxx17__normal_iteratorIPKiSt6vectorIiSaIiEEEEPiiET0_T_SA_S9_RSaIT1_E, symObjAddr: 0x113CC, symBinAddr: 0x100012FA4, symSize: 0x30 }
  - { offsetInCU: 0x4C207, offset: 0x4C207, size: 0x8, addend: 0x0, symName: __ZNKSt12_Vector_baseIiSaIiEE19_M_get_Tp_allocatorEv, symObjAddr: 0x113B8, symBinAddr: 0x100012F90, symSize: 0x14 }
  - { offsetInCU: 0x4C22D, offset: 0x4C22D, size: 0x8, addend: 0x0, symName: __ZSt6__sortIN9__gnu_cxx17__normal_iteratorIPiSt6vectorIiSaIiEEEENS0_5__ops15_Iter_comp_iterIZ15greedy_fordwardvEUliiE_EEEvT_SB_T0_, symObjAddr: 0x11348, symBinAddr: 0x100012F20, symSize: 0x70 }
  - { offsetInCU: 0x4C28B, offset: 0x4C28B, size: 0x8, addend: 0x0, symName: __ZN9__gnu_cxx5__ops16__iter_comp_iterIZ15greedy_fordwardvEUliiE_EENS0_15_Iter_comp_iterIT_EES4_, symObjAddr: 0x11310, symBinAddr: 0x100012EE8, symSize: 0x38 }
  - { offsetInCU: 0x4C31A, offset: 0x4C31A, size: 0x8, addend: 0x0, symName: __ZNSt12_Vector_baseIiSaIiEE17_Vector_impl_dataC2EOS2_, symObjAddr: 0x112A0, symBinAddr: 0x100012E78, symSize: 0x70 }
  - { offsetInCU: 0x4C343, offset: 0x4C343, size: 0x8, addend: 0x0, symName: __ZSt4moveIRNSt12_Vector_baseIiSaIiEE12_Vector_implEEONSt16remove_referenceIT_E4typeEOS6_, symObjAddr: 0x1128C, symBinAddr: 0x100012E64, symSize: 0x14 }
  - { offsetInCU: 0x4C3E0, offset: 0x4C3E0, size: 0x8, addend: 0x0, symName: __ZNSt4pairIxiEC1IRxRiLb1EEEOT_OT0_, symObjAddr: 0x11244, symBinAddr: 0x100012E1C, symSize: 0x48 }
  - { offsetInCU: 0x4C40D, offset: 0x4C40D, size: 0x8, addend: 0x0, symName: __ZSt7forwardIRiEOT_RNSt16remove_referenceIS1_E4typeE, symObjAddr: 0x11230, symBinAddr: 0x100012E08, symSize: 0x14 }
  - { offsetInCU: 0x4C445, offset: 0x4C445, size: 0x8, addend: 0x0, symName: __ZSt7forwardIRxEOT_RNSt16remove_referenceIS1_E4typeE, symObjAddr: 0x1121C, symBinAddr: 0x100012DF4, symSize: 0x14 }
  - { offsetInCU: 0x4C47B, offset: 0x4C47B, size: 0x8, addend: 0x0, symName: __ZNSt6vectorIbSaIbEE5beginEv, symObjAddr: 0x111CC, symBinAddr: 0x100012DA4, symSize: 0x50 }
  - { offsetInCU: 0x4C4E0, offset: 0x4C4E0, size: 0x8, addend: 0x0, symName: __ZNSt12_Vector_baseIiSaIiEE19_M_get_Tp_allocatorEv, symObjAddr: 0x111B8, symBinAddr: 0x100012D90, symSize: 0x14 }
  - { offsetInCU: 0x4C50A, offset: 0x4C50A, size: 0x8, addend: 0x0, symName: __ZNSt6vectorIiSaIiEE21_M_default_initializeEm, symObjAddr: 0x11168, symBinAddr: 0x100012D40, symSize: 0x50 }
  - { offsetInCU: 0x4C59C, offset: 0x4C59C, size: 0x8, addend: 0x0, symName: __ZNSt12_Vector_baseIiSaIiEEC2EmRKS0_, symObjAddr: 0x11114, symBinAddr: 0x100012CEC, symSize: 0x54 }
  - { offsetInCU: 0x4C5AF, offset: 0x4C5AF, size: 0x8, addend: 0x0, symName: __ZNSt6vectorIiSaIiEE17_S_check_init_lenEmRKS0_, symObjAddr: 0x11090, symBinAddr: 0x100012C68, symSize: 0x84 }
  - { offsetInCU: 0x4C6BB, offset: 0x4C6BB, size: 0x8, addend: 0x0, symName: __ZNSt13_Bvector_baseISaIbEED2Ev, symObjAddr: 0x11068, symBinAddr: 0x100012C40, symSize: 0x28 }
  - { offsetInCU: 0x4C718, offset: 0x4C718, size: 0x8, addend: 0x0, symName: __ZNSt13_Bvector_baseISaIbEE13_Bvector_implD1Ev, symObjAddr: 0x1103C, symBinAddr: 0x100012C14, symSize: 0x2C }
  - { offsetInCU: 0x4C798, offset: 0x4C798, size: 0x8, addend: 0x0, symName: __ZNSt6vectorIbSaIbEEC1EmRKbRKS0_, symObjAddr: 0x10FD0, symBinAddr: 0x100012BA8, symSize: 0x6C }
  - { offsetInCU: 0x4C7FA, offset: 0x4C7FA, size: 0x8, addend: 0x0, symName: __ZNSt15__new_allocatorIbED2Ev, symObjAddr: 0x10FBC, symBinAddr: 0x100012B94, symSize: 0x14 }
  - { offsetInCU: 0x4C81C, offset: 0x4C81C, size: 0x8, addend: 0x0, symName: __ZNK9__gnu_cxx17__normal_iteratorIPiSt6vectorIiSaIiEEE4baseEv, symObjAddr: 0x10FA8, symBinAddr: 0x100012B80, symSize: 0x14 }
  - { offsetInCU: 0x4C8A8, offset: 0x4C8A8, size: 0x8, addend: 0x0, symName: __ZN9__gnu_cxx17__normal_iteratorIPiSt6vectorIiSaIiEEEC1ERKS1_, symObjAddr: 0x10F80, symBinAddr: 0x100012B58, symSize: 0x28 }
  - { offsetInCU: 0x4C89D, offset: 0x4C89D, size: 0x8, addend: 0x0, symName: __ZNK9__gnu_cxx17__normal_iteratorIPKiSt6vectorIiSaIiEEE4baseEv, symObjAddr: 0x10F6C, symBinAddr: 0x100012B44, symSize: 0x14 }
  - { offsetInCU: 0x4C92A, offset: 0x4C92A, size: 0x8, addend: 0x0, symName: __ZN9__gnu_cxx17__normal_iteratorIPKiSt6vectorIiSaIiEEEC1ERKS2_, symObjAddr: 0x10F44, symBinAddr: 0x100012B1C, symSize: 0x28 }
  - { offsetInCU: 0x4C91E, offset: 0x4C91E, size: 0x8, addend: 0x0, symName: __ZNK9__gnu_cxx17__normal_iteratorIPP4NodeSt6vectorIS2_SaIS2_EEE4baseEv, symObjAddr: 0x10F30, symBinAddr: 0x100012B08, symSize: 0x14 }
  - { offsetInCU: 0x4C9B3, offset: 0x4C9B3, size: 0x8, addend: 0x0, symName: __ZN9__gnu_cxx17__normal_iteratorIPP4NodeSt6vectorIS2_SaIS2_EEEC1ERKS3_, symObjAddr: 0x10F08, symBinAddr: 0x100012AE0, symSize: 0x28 }
  - { offsetInCU: 0x4C99F, offset: 0x4C99F, size: 0x8, addend: 0x0, symName: __ZNSt6vectorIySaIyEE14_M_move_assignEOS1_St17integral_constantIbLb1EE, symObjAddr: 0x10E74, symBinAddr: 0x100012A4C, symSize: 0x94 }
  - { offsetInCU: 0x4CA46, offset: 0x4CA46, size: 0x8, addend: 0x0, symName: __ZSt4moveIRSt6vectorIySaIyEEEONSt16remove_referenceIT_E4typeEOS5_, symObjAddr: 0x10E60, symBinAddr: 0x100012A38, symSize: 0x14 }
  - { offsetInCU: 0x4CAAB, offset: 0x4CAAB, size: 0x8, addend: 0x0, symName: __ZN9__gnu_cxxeqIPKP4NodeSt6vectorIS2_SaIS2_EEEEbRKNS_17__normal_iteratorIT_T0_EESD_, symObjAddr: 0x10E1C, symBinAddr: 0x1000129F4, symSize: 0x44 }
  - { offsetInCU: 0x4CAFC, offset: 0x4CAFC, size: 0x8, addend: 0x0, symName: __ZNKSt6vectorIP4NodeSaIS1_EE3endEv, symObjAddr: 0x10DF4, symBinAddr: 0x1000129CC, symSize: 0x28 }
  - { offsetInCU: 0x4CB26, offset: 0x4CB26, size: 0x8, addend: 0x0, symName: __ZNKSt6vectorIP4NodeSaIS1_EE5beginEv, symObjAddr: 0x10DD0, symBinAddr: 0x1000129A8, symSize: 0x24 }
  - { offsetInCU: 0x4CB50, offset: 0x4CB50, size: 0x8, addend: 0x0, symName: __ZNSt6vectorIP4NodeSaIS1_EE17_M_realloc_appendIJRKS1_EEEvDpOT_, symObjAddr: 0x10C14, symBinAddr: 0x1000127EC, symSize: 0x1BC }
  - { offsetInCU: 0x4CD26, offset: 0x4CD26, size: 0x8, addend: 0x0, symName: __ZZNSt6vectorIP4NodeSaIS1_EE17_M_realloc_appendIJRKS1_EEEvDpOT_EN6_GuardC1EPS1_mRS2_, symObjAddr: 0x10B70, symBinAddr: 0x100012748, symSize: 0x44 }
  - { offsetInCU: 0x4CD64, offset: 0x4CD64, size: 0x8, addend: 0x0, symName: __ZZNSt6vectorIP4NodeSaIS1_EE17_M_realloc_appendIJRKS1_EEEvDpOT_EN6_GuardD1Ev, symObjAddr: 0x10BB4, symBinAddr: 0x10001278C, symSize: 0x60 }
  - { offsetInCU: 0x4CE51, offset: 0x4CE51, size: 0x8, addend: 0x0, symName: __ZNK9__gnu_cxx17__normal_iteratorIPP4NodeSt6vectorIS2_SaIS2_EEEmiEl, symObjAddr: 0x10B2C, symBinAddr: 0x100012704, symSize: 0x44 }
  - { offsetInCU: 0x4CE8C, offset: 0x4CE8C, size: 0x8, addend: 0x0, symName: __ZNSt6vectorIP4NodeSaIS1_EE12emplace_backIJS1_EEERS1_DpOT_, symObjAddr: 0x10A54, symBinAddr: 0x10001262C, symSize: 0xD8 }
  - { offsetInCU: 0x4CF3E, offset: 0x4CF3E, size: 0x8, addend: 0x0, symName: __ZSt4moveIRP4NodeEONSt16remove_referenceIT_E4typeEOS4_, symObjAddr: 0x10A40, symBinAddr: 0x100012618, symSize: 0x14 }
  - { offsetInCU: 0x4CF70, offset: 0x4CF70, size: 0x8, addend: 0x0, symName: __ZNSt6vectorIP4NodeSaIS1_EE11_S_relocateEPS1_S4_S4_RS2_, symObjAddr: 0x10A0C, symBinAddr: 0x1000125E4, symSize: 0x34 }
  - { offsetInCU: 0x4CFD1, offset: 0x4CFD1, size: 0x8, addend: 0x0, symName: __ZNSt12_Vector_baseIP4NodeSaIS1_EE11_M_allocateEm, symObjAddr: 0x109BC, symBinAddr: 0x100012594, symSize: 0x50 }
  - { offsetInCU: 0x4D039, offset: 0x4D039, size: 0x8, addend: 0x0, symName: __ZNKSt6vectorIP4NodeSaIS1_EE8capacityEv, symObjAddr: 0x10994, symBinAddr: 0x10001256C, symSize: 0x28 }
  - { offsetInCU: 0x4D063, offset: 0x4D063, size: 0x8, addend: 0x0, symName: __ZNKSt6vectorIP4NodeSaIS1_EE8max_sizeEv, symObjAddr: 0x10974, symBinAddr: 0x10001254C, symSize: 0x20 }
  - { offsetInCU: 0x4D0C8, offset: 0x4D0C8, size: 0x8, addend: 0x0, symName: __ZNSt12_Vector_baseIP4NodeSaIS1_EE19_M_get_Tp_allocatorEv, symObjAddr: 0x10960, symBinAddr: 0x100012538, symSize: 0x14 }
  - { offsetInCU: 0x4D0F2, offset: 0x4D0F2, size: 0x8, addend: 0x0, symName: __ZNSt12_Vector_baseIP4NodeSaIS1_EE13_M_deallocateEPS1_m, symObjAddr: 0x10908, symBinAddr: 0x1000124E0, symSize: 0x58 }
  - { offsetInCU: 0x4D1B7, offset: 0x4D1B7, size: 0x8, addend: 0x0, symName: __ZNSt15__new_allocatorIP4NodeED2Ev, symObjAddr: 0x108F4, symBinAddr: 0x1000124CC, symSize: 0x14 }
  - { offsetInCU: 0x4D20E, offset: 0x4D20E, size: 0x8, addend: 0x0, symName: __ZNSt12_Vector_baseIP4NodeSaIS1_EE17_Vector_impl_dataC1Ev, symObjAddr: 0x108C8, symBinAddr: 0x1000124A0, symSize: 0x2C }
  - { offsetInCU: 0x4D238, offset: 0x4D238, size: 0x8, addend: 0x0, symName: __ZNSt12_Vector_baseIP4NodeSaIS1_EE17_Vector_impl_dataC2Ev, symObjAddr: 0x1089C, symBinAddr: 0x100012474, symSize: 0x2C }
  - { offsetInCU: 0x4D279, offset: 0x4D279, size: 0x8, addend: 0x0, symName: __ZNSt12_Vector_baseIySaIyEE19_M_get_Tp_allocatorEv, symObjAddr: 0x10888, symBinAddr: 0x100012460, symSize: 0x14 }
  - { offsetInCU: 0x4D2A3, offset: 0x4D2A3, size: 0x8, addend: 0x0, symName: __ZNSt12_Vector_baseIySaIyEE13_M_deallocateEPym, symObjAddr: 0x10830, symBinAddr: 0x100012408, symSize: 0x58 }
  - { offsetInCU: 0x4D363, offset: 0x4D363, size: 0x8, addend: 0x0, symName: __ZNSt15__new_allocatorIyED2Ev, symObjAddr: 0x1081C, symBinAddr: 0x1000123F4, symSize: 0x14 }
  - { offsetInCU: 0x4D3B8, offset: 0x4D3B8, size: 0x8, addend: 0x0, symName: __ZNSt12_Vector_baseIySaIyEE17_Vector_impl_dataC1Ev, symObjAddr: 0x107F0, symBinAddr: 0x1000123C8, symSize: 0x2C }
  - { offsetInCU: 0x4D3E2, offset: 0x4D3E2, size: 0x8, addend: 0x0, symName: __ZNSt12_Vector_baseIySaIyEE17_Vector_impl_dataC2Ev, symObjAddr: 0x107C4, symBinAddr: 0x10001239C, symSize: 0x2C }
  - { offsetInCU: 0x4D3F1, offset: 0x4D3F1, size: 0x8, addend: 0x0, symName: __ZN9__gnu_cxxeqIPKySt6vectorIySaIyEEEEbRKNS_17__normal_iteratorIT_T0_EESB_, symObjAddr: 0x10780, symBinAddr: 0x100012358, symSize: 0x44 }
  - { offsetInCU: 0x4D442, offset: 0x4D442, size: 0x8, addend: 0x0, symName: __ZNKSt6vectorIySaIyEE3endEv, symObjAddr: 0x10758, symBinAddr: 0x100012330, symSize: 0x28 }
  - { offsetInCU: 0x4D46C, offset: 0x4D46C, size: 0x8, addend: 0x0, symName: __ZNKSt6vectorIySaIyEE5beginEv, symObjAddr: 0x10734, symBinAddr: 0x10001230C, symSize: 0x24 }
  - { offsetInCU: 0x4D496, offset: 0x4D496, size: 0x8, addend: 0x0, symName: __ZNSt6vectorIySaIyEE15_M_erase_at_endEPy, symObjAddr: 0x106AC, symBinAddr: 0x100012284, symSize: 0x88 }
  - { offsetInCU: 0x4D52B, offset: 0x4D52B, size: 0x8, addend: 0x0, symName: __ZNSt6vectorIySaIyEE17_M_default_appendEm, symObjAddr: 0x104A0, symBinAddr: 0x100012078, symSize: 0x20C }
  - { offsetInCU: 0x4D707, offset: 0x4D707, size: 0x8, addend: 0x0, symName: __ZZNSt6vectorIySaIyEE17_M_default_appendEmEN6_GuardC1EPymRS0_, symObjAddr: 0x103FC, symBinAddr: 0x100011FD4, symSize: 0x44 }
  - { offsetInCU: 0x4D747, offset: 0x4D747, size: 0x8, addend: 0x0, symName: __ZZNSt6vectorIySaIyEE17_M_default_appendEmEN6_GuardD1Ev, symObjAddr: 0x10440, symBinAddr: 0x100012018, symSize: 0x60 }
  - { offsetInCU: 0x4D770, offset: 0x4D770, size: 0x8, addend: 0x0, symName: __ZNSt8_Rb_treeIiiSt9_IdentityIiESt4lessIiESaIiEE8_M_beginEv, symObjAddr: 0x103E0, symBinAddr: 0x100011FB8, symSize: 0x1C }
  - { offsetInCU: 0x4D79A, offset: 0x4D79A, size: 0x8, addend: 0x0, symName: __ZNSt8_Rb_treeIiiSt9_IdentityIiESt4lessIiESaIiEE8_M_eraseEPSt13_Rb_tree_nodeIiE, symObjAddr: 0x1037C, symBinAddr: 0x100011F54, symSize: 0x64 }
  - { offsetInCU: 0x4D84A, offset: 0x4D84A, size: 0x8, addend: 0x0, symName: __ZNSt15__new_allocatorISt13_Rb_tree_nodeIiEED2Ev, symObjAddr: 0x10368, symBinAddr: 0x100011F40, symSize: 0x14 }
  - { offsetInCU: 0x4D885, offset: 0x4D885, size: 0x8, addend: 0x0, symName: __ZNSt20_Rb_tree_key_compareISt4lessIiEEC2Ev, symObjAddr: 0x10354, symBinAddr: 0x100011F2C, symSize: 0x14 }
  - { offsetInCU: 0x4D899, offset: 0x4D899, size: 0x8, addend: 0x0, symName: __ZNSt12_Vector_baseIdSaIdEE13_M_deallocateEPdm, symObjAddr: 0x102FC, symBinAddr: 0x100011ED4, symSize: 0x58 }
  - { offsetInCU: 0x4D959, offset: 0x4D959, size: 0x8, addend: 0x0, symName: __ZNSt15__new_allocatorIdED2Ev, symObjAddr: 0x102E8, symBinAddr: 0x100011EC0, symSize: 0x14 }
  - { offsetInCU: 0x4D9AE, offset: 0x4D9AE, size: 0x8, addend: 0x0, symName: __ZNSt12_Vector_baseIdSaIdEE17_Vector_impl_dataC2Ev, symObjAddr: 0x102BC, symBinAddr: 0x100011E94, symSize: 0x2C }
  - { offsetInCU: 0x4D9A5, offset: 0x4D9A5, size: 0x8, addend: 0x0, symName: __ZNSt12_Vector_baseIiSaIiEE13_M_deallocateEPim, symObjAddr: 0x10264, symBinAddr: 0x100011E3C, symSize: 0x58 }
  - { offsetInCU: 0x4DA65, offset: 0x4DA65, size: 0x8, addend: 0x0, symName: __ZNSt15__new_allocatorIiED2Ev, symObjAddr: 0x10250, symBinAddr: 0x100011E28, symSize: 0x14 }
  - { offsetInCU: 0x4DABA, offset: 0x4DABA, size: 0x8, addend: 0x0, symName: __ZNSt12_Vector_baseIiSaIiEE17_Vector_impl_dataC1Ev, symObjAddr: 0x10224, symBinAddr: 0x100011DFC, symSize: 0x2C }
  - { offsetInCU: 0x4DAE4, offset: 0x4DAE4, size: 0x8, addend: 0x0, symName: __ZNSt12_Vector_baseIiSaIiEE17_Vector_impl_dataC2Ev, symObjAddr: 0x101F8, symBinAddr: 0x100011DD0, symSize: 0x2C }
  - { offsetInCU: 0x4DADB, offset: 0x4DADB, size: 0x8, addend: 0x0, symName: __ZNKSt7__cxx1112basic_stringIcSt11char_traitsIcESaIcEE8_M_checkEmPKc, symObjAddr: 0x10180, symBinAddr: 0x100011D58, symSize: 0x78 }
  - { offsetInCU: 0x4DB23, offset: 0x4DB23, size: 0x8, addend: 0x0, symName: __ZNSt7__cxx1112basic_stringIcSt11char_traitsIcESaIcEE7_S_copyEPcPKcm, symObjAddr: 0x10134, symBinAddr: 0x100011D0C, symSize: 0x4C }
  - { offsetInCU: 0x4DB73, offset: 0x4DB73, size: 0x8, addend: 0x0, symName: __ZNSt7__cxx1112basic_stringIcSt11char_traitsIcESaIcEE10_M_destroyEm, symObjAddr: 0x100D0, symBinAddr: 0x100011CA8, symSize: 0x64 }
  - { offsetInCU: 0x4DBE4, offset: 0x4DBE4, size: 0x8, addend: 0x0, symName: __ZNSt7__cxx1112basic_stringIcSt11char_traitsIcESaIcEE12_M_constructIPcEEvT_S7_St20forward_iterator_tag, symObjAddr: 0xFFF0, symBinAddr: 0x100011BC8, symSize: 0xE0 }
  - { offsetInCU: 0x4DD61, offset: 0x4DD61, size: 0x8, addend: 0x0, symName: __ZZNSt7__cxx1112basic_stringIcSt11char_traitsIcESaIcEE12_M_constructIPcEEvT_S7_St20forward_iterator_tagEN6_GuardC1EPS4_, symObjAddr: 0xFF98, symBinAddr: 0x100011B70, symSize: 0x24 }
  - { offsetInCU: 0x4DD92, offset: 0x4DD92, size: 0x8, addend: 0x0, symName: __ZZNSt7__cxx1112basic_stringIcSt11char_traitsIcESaIcEE12_M_constructIPcEEvT_S7_St20forward_iterator_tagEN6_GuardD1Ev, symObjAddr: 0xFFBC, symBinAddr: 0x100011B94, symSize: 0x34 }
  - { offsetInCU: 0x4DDFC, offset: 0x4DDFC, size: 0x8, addend: 0x0, symName: __ZNKSt7__cxx1112basic_stringIcSt11char_traitsIcESaIcEE16_M_get_allocatorEv, symObjAddr: 0xFF84, symBinAddr: 0x100011B5C, symSize: 0x14 }
  - { offsetInCU: 0x4DE64, offset: 0x4DE64, size: 0x8, addend: 0x0, symName: __ZNSt15__new_allocatorImED2Ev, symObjAddr: 0xFF70, symBinAddr: 0x100011B48, symSize: 0x14 }
  - { offsetInCU: 0x4DE86, offset: 0x4DE86, size: 0x8, addend: 0x0, symName: __ZNSt7__cxx1112basic_stringIcSt11char_traitsIcESaIcEE6insertEmRKS4_, symObjAddr: 0xFF20, symBinAddr: 0x100011AF8, symSize: 0x50 }
  - { offsetInCU: 0x4DED2, offset: 0x4DED2, size: 0x8, addend: 0x0, symName: __ZNSt7__cxx1112basic_stringIcSt11char_traitsIcESaIcEE6insertEmPKc, symObjAddr: 0xFEE4, symBinAddr: 0x100011ABC, symSize: 0x3C }
  - { offsetInCU: 0x4DF20, offset: 0x4DF20, size: 0x8, addend: 0x0, symName: __ZSt7forwardImEOT_RNSt16remove_referenceIS0_E4typeE, symObjAddr: 0xFED0, symBinAddr: 0x100011AA8, symSize: 0x14 }
  - { offsetInCU: 0x4DF56, offset: 0x4DF56, size: 0x8, addend: 0x0, symName: __ZNSt7__cxx1112basic_stringIcSt11char_traitsIcESaIcEE12_M_constructIPKcEEvT_S8_St20forward_iterator_tag, symObjAddr: 0xFDF0, symBinAddr: 0x1000119C8, symSize: 0xE0 }
  - { offsetInCU: 0x4E0D4, offset: 0x4E0D4, size: 0x8, addend: 0x0, symName: __ZZNSt7__cxx1112basic_stringIcSt11char_traitsIcESaIcEE12_M_constructIPKcEEvT_S8_St20forward_iterator_tagEN6_GuardC1EPS4_, symObjAddr: 0xFD98, symBinAddr: 0x100011970, symSize: 0x24 }
  - { offsetInCU: 0x4E105, offset: 0x4E105, size: 0x8, addend: 0x0, symName: __ZZNSt7__cxx1112basic_stringIcSt11char_traitsIcESaIcEE12_M_constructIPKcEEvT_S8_St20forward_iterator_tagEN6_GuardD1Ev, symObjAddr: 0xFDBC, symBinAddr: 0x100011994, symSize: 0x34 }
  - { offsetInCU: 0x4E1EC, offset: 0x4E1EC, size: 0x8, addend: 0x0, symName: __ZNSt7__cxx1112basic_stringIcSt11char_traitsIcESaIcEE12_Alloc_hiderC1EPcRKS3_, symObjAddr: 0xFD48, symBinAddr: 0x100011920, symSize: 0x50 }
  - { offsetInCU: 0x4E270, offset: 0x4E270, size: 0x8, addend: 0x0, symName: __ZNSt15__new_allocatorIcED2Ev, symObjAddr: 0xFD34, symBinAddr: 0x10001190C, symSize: 0x14 }
  - { offsetInCU: 0x4E292, offset: 0x4E292, size: 0x8, addend: 0x0, symName: __ZNKSt7__cxx1112basic_stringIcSt11char_traitsIcESaIcEE4sizeEv, symObjAddr: 0xFD1C, symBinAddr: 0x1000118F4, symSize: 0x18 }
  - { offsetInCU: 0x4E363, offset: 0x4E363, size: 0x8, addend: 0x0, symName: __ZNSt7__cxx1112basic_stringIcSt11char_traitsIcESaIcEEC1IPcvEET_S7_RKS3_, symObjAddr: 0xFC9C, symBinAddr: 0x100011874, symSize: 0x80 }
  - { offsetInCU: 0x4E38D, offset: 0x4E38D, size: 0x8, addend: 0x0, symName: __ZSt4moveIRZNSt7__cxx119to_stringExEUlPcmE_EONSt16remove_referenceIT_E4typeEOS5_, symObjAddr: 0xFC88, symBinAddr: 0x100011860, symSize: 0x14 }
  - { offsetInCU: 0x4E3C6, offset: 0x4E3C6, size: 0x8, addend: 0x0, symName: __ZSt4moveIRZNSt7__cxx119to_stringEmEUlPcmE_EONSt16remove_referenceIT_E4typeEOS5_, symObjAddr: 0xFC74, symBinAddr: 0x10001184C, symSize: 0x14 }
  - { offsetInCU: 0x4E412, offset: 0x4E412, size: 0x8, addend: 0x0, symName: __ZNSt7__cxx1112basic_stringIcSt11char_traitsIcESaIcEE9_M_lengthEm, symObjAddr: 0xFC50, symBinAddr: 0x100011828, symSize: 0x24 }
  - { offsetInCU: 0x4E44C, offset: 0x4E44C, size: 0x8, addend: 0x0, symName: __ZNSt7__cxx1112basic_stringIcSt11char_traitsIcESaIcEE11_M_capacityEm, symObjAddr: 0xFC2C, symBinAddr: 0x100011804, symSize: 0x24 }
  - { offsetInCU: 0x4E486, offset: 0x4E486, size: 0x8, addend: 0x0, symName: __ZNSt7__cxx1112basic_stringIcSt11char_traitsIcESaIcEE7_M_dataEPc, symObjAddr: 0xFC08, symBinAddr: 0x1000117E0, symSize: 0x24 }
  - { offsetInCU: 0x4E4C0, offset: 0x4E4C0, size: 0x8, addend: 0x0, symName: __ZNKSt7__cxx1112basic_stringIcSt11char_traitsIcESaIcEE6lengthEv, symObjAddr: 0xFBF0, symBinAddr: 0x1000117C8, symSize: 0x18 }
  - { offsetInCU: 0x4E4EA, offset: 0x4E4EA, size: 0x8, addend: 0x0, symName: __ZNKSt7__cxx1112basic_stringIcSt11char_traitsIcESaIcEE11_M_is_localEv, symObjAddr: 0xFB88, symBinAddr: 0x100011760, symSize: 0x68 }
  - { offsetInCU: 0x4E517, offset: 0x4E517, size: 0x8, addend: 0x0, symName: __ZSt4moveIRSaIcEEONSt16remove_referenceIT_E4typeEOS3_, symObjAddr: 0xFB74, symBinAddr: 0x10001174C, symSize: 0x14 }
  - { offsetInCU: 0x4E54D, offset: 0x4E54D, size: 0x8, addend: 0x0, symName: __ZNSt7__cxx1112basic_stringIcSt11char_traitsIcESaIcEE16_M_get_allocatorEv, symObjAddr: 0xFB60, symBinAddr: 0x100011738, symSize: 0x14 }
  - { offsetInCU: 0x4E57A, offset: 0x4E57A, size: 0x8, addend: 0x0, symName: __ZSt4moveIRZNSt7__cxx119to_stringEiEUlPcmE_EONSt16remove_referenceIT_E4typeEOS5_, symObjAddr: 0xFB4C, symBinAddr: 0x100011724, symSize: 0x14 }
  - { offsetInCU: 0x4E5B5, offset: 0x4E5B5, size: 0x8, addend: 0x0, symName: __ZNSt7__cxx1112basic_stringIcSt11char_traitsIcESaIcEE7reserveEm, symObjAddr: 0xFAA4, symBinAddr: 0x10001167C, symSize: 0xA8 }
  - { offsetInCU: 0x4E611, offset: 0x4E611, size: 0x8, addend: 0x0, symName: __ZNSt7__cxx1112basic_stringIcSt11char_traitsIcESaIcEE10_M_disposeEv, symObjAddr: 0xFA5C, symBinAddr: 0x100011634, symSize: 0x48 }
  - { offsetInCU: 0x4E63B, offset: 0x4E63B, size: 0x8, addend: 0x0, symName: __ZNSt7__cxx1112basic_stringIcSt11char_traitsIcESaIcEE13_M_set_lengthEm, symObjAddr: 0xFA14, symBinAddr: 0x1000115EC, symSize: 0x48 }
  - { offsetInCU: 0x4E709, offset: 0x4E709, size: 0x8, addend: 0x0, symName: __ZNSt7__cxx1112basic_stringIcSt11char_traitsIcESaIcEE12_Alloc_hiderC1EPcOS3_, symObjAddr: 0xF9B8, symBinAddr: 0x100011590, symSize: 0x5C }
  - { offsetInCU: 0x4E750, offset: 0x4E750, size: 0x8, addend: 0x0, symName: __ZNSt7__cxx1112basic_stringIcSt11char_traitsIcESaIcEE13_M_local_dataEv, symObjAddr: 0xF998, symBinAddr: 0x100011570, symSize: 0x20 }
  - { offsetInCU: 0x4E77A, offset: 0x4E77A, size: 0x8, addend: 0x0, symName: __ZNKSt7__cxx1112basic_stringIcSt11char_traitsIcESaIcEE7_M_dataEv, symObjAddr: 0xF980, symBinAddr: 0x100011558, symSize: 0x18 }
  - { offsetInCU: 0x4E7A0, offset: 0x4E7A0, size: 0x8, addend: 0x0, symName: __ZN9__gnu_cxx11char_traitsIcE2eqERKcS3_, symObjAddr: 0xF950, symBinAddr: 0x100011528, symSize: 0x30 }
  - { offsetInCU: 0x4E7DD, offset: 0x4E7DD, size: 0x8, addend: 0x0, symName: __ZNSt6vectorIiSaIiEE6resizeEm, symObjAddr: 0xF8A0, symBinAddr: 0x100011478, symSize: 0xB0 }
  - { offsetInCU: 0x4E818, offset: 0x4E818, size: 0x8, addend: 0x0, symName: __ZNSt6vectorISt5tupleIJiiiEESaIS1_EEixEm, symObjAddr: 0xF810, symBinAddr: 0x1000113E8, symSize: 0x90 }
  - { offsetInCU: 0x4E874, offset: 0x4E874, size: 0x8, addend: 0x0, symName: __ZSt4sortIN9__gnu_cxx17__normal_iteratorIPSt5tupleIJiiiEESt6vectorIS3_SaIS3_EEEEEvT_S9_, symObjAddr: 0xF7D8, symBinAddr: 0x1000113B0, symSize: 0x38 }
  - { offsetInCU: 0x4E8BC, offset: 0x4E8BC, size: 0x8, addend: 0x0, symName: __ZNSt6vectorISt5tupleIJiiiEESaIS1_EE3endEv, symObjAddr: 0xF7B0, symBinAddr: 0x100011388, symSize: 0x28 }
  - { offsetInCU: 0x4E8E6, offset: 0x4E8E6, size: 0x8, addend: 0x0, symName: __ZNSt6vectorISt5tupleIJiiiEESaIS1_EE5beginEv, symObjAddr: 0xF78C, symBinAddr: 0x100011364, symSize: 0x24 }
  - { offsetInCU: 0x4E910, offset: 0x4E910, size: 0x8, addend: 0x0, symName: __ZNSt6vectorISt5tupleIJiiiEESaIS1_EE12emplace_backIJRiS5_S5_EEERS1_DpOT_, symObjAddr: 0xF620, symBinAddr: 0x1000111F8, symSize: 0x16C }
  - { offsetInCU: 0x4EA4E, offset: 0x4EA4E, size: 0x8, addend: 0x0, symName: __ZNSt6vectorISt5tupleIJiiiEESaIS1_EED1Ev, symObjAddr: 0xF5C4, symBinAddr: 0x10001119C, symSize: 0x5C }
  - { offsetInCU: 0x4EAD5, offset: 0x4EAD5, size: 0x8, addend: 0x0, symName: __ZNSt12_Vector_baseISt5tupleIJiiiEESaIS1_EED2Ev, symObjAddr: 0xF568, symBinAddr: 0x100011140, symSize: 0x5C }
  - { offsetInCU: 0x4EB43, offset: 0x4EB43, size: 0x8, addend: 0x0, symName: __ZNSt12_Vector_baseISt5tupleIJiiiEESaIS1_EE12_Vector_implC1Ev, symObjAddr: 0xF530, symBinAddr: 0x100011108, symSize: 0x38 }
  - { offsetInCU: 0x4EB75, offset: 0x4EB75, size: 0x8, addend: 0x0, symName: __ZNSt6vectorIbSaIbEE6resizeEmb, symObjAddr: 0xF460, symBinAddr: 0x100011038, symSize: 0xD0 }
  - { offsetInCU: 0x4EBC4, offset: 0x4EBC4, size: 0x8, addend: 0x0, symName: __ZNSt6vectorIS_IbSaIbEESaIS1_EEixEm, symObjAddr: 0xF3D0, symBinAddr: 0x100010FA8, symSize: 0x90 }
  - { offsetInCU: 0x4EC68, offset: 0x4EC68, size: 0x8, addend: 0x0, symName: __ZNSt6vectorIS_IbSaIbEESaIS1_EED1Ev, symObjAddr: 0xF374, symBinAddr: 0x100010F4C, symSize: 0x5C }
  - { offsetInCU: 0x4ECFF, offset: 0x4ECFF, size: 0x8, addend: 0x0, symName: __ZNSt6vectorIS_IbSaIbEESaIS1_EEC1EmRKS2_, symObjAddr: 0xF30C, symBinAddr: 0x100010EE4, symSize: 0x68 }
  - { offsetInCU: 0x4ED48, offset: 0x4ED48, size: 0x8, addend: 0x0, symName: __ZNSt3setIiSt4lessIiESaIiEE5clearEv, symObjAddr: 0xF2EC, symBinAddr: 0x100010EC4, symSize: 0x20 }
  - { offsetInCU: 0x4ED72, offset: 0x4ED72, size: 0x8, addend: 0x0, symName: __ZNSt6vectorIdSaIdEE6resizeEmRKd, symObjAddr: 0xF21C, symBinAddr: 0x100010DF4, symSize: 0xD0 }
  - { offsetInCU: 0x4EDC0, offset: 0x4EDC0, size: 0x8, addend: 0x0, symName: __ZSt3getILm1EJSt6vectorIdSaIdEEdEERNSt13tuple_elementIXT_ESt5tupleIJDpT0_EEE4typeERS7_, symObjAddr: 0xF200, symBinAddr: 0x100010DD8, symSize: 0x1C }
  - { offsetInCU: 0x4EE0A, offset: 0x4EE0A, size: 0x8, addend: 0x0, symName: __ZSt3getILm0EJSt6vectorIdSaIdEEdEERNSt13tuple_elementIXT_ESt5tupleIJDpT0_EEE4typeERS7_, symObjAddr: 0xF1E4, symBinAddr: 0x100010DBC, symSize: 0x1C }
  - { offsetInCU: 0x4EE52, offset: 0x4EE52, size: 0x8, addend: 0x0, symName: __ZNKSt6vectorIiSaIiEE5emptyEv, symObjAddr: 0xF1AC, symBinAddr: 0x100010D84, symSize: 0x38 }
  - { offsetInCU: 0x4EE7C, offset: 0x4EE7C, size: 0x8, addend: 0x0, symName: __ZNSt6vectorIP4NodeSaIS1_EE5clearEv, symObjAddr: 0xF180, symBinAddr: 0x100010D58, symSize: 0x2C }
  - { offsetInCU: 0x4EEA2, offset: 0x4EEA2, size: 0x8, addend: 0x0, symName: __ZSt3minIiERKT_S2_S2_, symObjAddr: 0xF148, symBinAddr: 0x100010D20, symSize: 0x38 }
  - { offsetInCU: 0x4EEE4, offset: 0x4EEE4, size: 0x8, addend: 0x0, symName: __ZSt4swapIP4NodeSaIS1_EEvRSt6vectorIT_T0_ES7_, symObjAddr: 0xF120, symBinAddr: 0x100010CF8, symSize: 0x28 }
  - { offsetInCU: 0x4EF35, offset: 0x4EF35, size: 0x8, addend: 0x0, symName: __ZNSt6vectorIP4NodeSaIS1_EEixEm, symObjAddr: 0xF09C, symBinAddr: 0x100010C74, symSize: 0x84 }
  - { offsetInCU: 0x4EF95, offset: 0x4EF95, size: 0x8, addend: 0x0, symName: __ZNSt6vectorIiSaIiEE5clearEv, symObjAddr: 0xF070, symBinAddr: 0x100010C48, symSize: 0x2C }
  - { offsetInCU: 0x4EFBF, offset: 0x4EFBF, size: 0x8, addend: 0x0, symName: __ZNSt6vectorIiSaIiEE6resizeEmRKi, symObjAddr: 0xEFA0, symBinAddr: 0x100010B78, symSize: 0xD0 }
  - { offsetInCU: 0x4F087, offset: 0x4F087, size: 0x8, addend: 0x0, symName: __ZNSt5tupleIJSt6vectorIdSaIdEEdEEC1IRS2_RdLb1EEEOT_OT0_, symObjAddr: 0xEF50, symBinAddr: 0x100010B28, symSize: 0x50 }
  - { offsetInCU: 0x4F09D, offset: 0x4F09D, size: 0x8, addend: 0x0, symName: __ZNKSt6chrono8durationIdSt5ratioILl1ELl1EEE5countEv, symObjAddr: 0xEF34, symBinAddr: 0x100010B0C, symSize: 0x1C }
  - { offsetInCU: 0x4F0C3, offset: 0x4F0C3, size: 0x8, addend: 0x0, symName: __ZNSt6chronomiIxSt5ratioILl1ELl1000000000EExS2_EENSt11common_typeIJNS_8durationIT_T0_EENS4_IT1_T2_EEEE4typeERKS7_RKSA_, symObjAddr: 0xEED0, symBinAddr: 0x100010AA8, symSize: 0x64 }
  - { offsetInCU: 0x4F1BF, offset: 0x4F1BF, size: 0x8, addend: 0x0, symName: __ZNSt6chrono8durationIdSt5ratioILl1ELl1EEEC1IxS1_ILl1ELl1000000000EEvEERKNS0_IT_T0_EE, symObjAddr: 0xEE90, symBinAddr: 0x100010A68, symSize: 0x40 }
  - { offsetInCU: 0x4F1AE, offset: 0x4F1AE, size: 0x8, addend: 0x0, symName: __ZNSt5dequeIdSaIdEE4backEv, symObjAddr: 0xEE18, symBinAddr: 0x1000109F0, symSize: 0x78 }
  - { offsetInCU: 0x4F20E, offset: 0x4F20E, size: 0x8, addend: 0x0, symName: __ZNSt5dequeIdSaIdEE5frontEv, symObjAddr: 0xEDA8, symBinAddr: 0x100010980, symSize: 0x70 }
  - { offsetInCU: 0x4F25D, offset: 0x4F25D, size: 0x8, addend: 0x0, symName: __ZNSt5dequeIdSaIdEE9pop_frontEv, symObjAddr: 0xECDC, symBinAddr: 0x1000108B4, symSize: 0xCC }
  - { offsetInCU: 0x4F306, offset: 0x4F306, size: 0x8, addend: 0x0, symName: __ZNKSt5dequeIdSaIdEE4sizeEv, symObjAddr: 0xECAC, symBinAddr: 0x100010884, symSize: 0x30 }
  - { offsetInCU: 0x4F32C, offset: 0x4F32C, size: 0x8, addend: 0x0, symName: __ZSt10accumulateIN9__gnu_cxx17__normal_iteratorIPdSt6vectorIdSaIdEEEEdET0_T_S8_S7_, symObjAddr: 0xEC4C, symBinAddr: 0x100010824, symSize: 0x60 }
  - { offsetInCU: 0x4F38B, offset: 0x4F38B, size: 0x8, addend: 0x0, symName: __ZNSt6vectorIdSaIdEE3endEv, symObjAddr: 0xEC24, symBinAddr: 0x1000107FC, symSize: 0x28 }
  - { offsetInCU: 0x4F3B5, offset: 0x4F3B5, size: 0x8, addend: 0x0, symName: __ZNSt6vectorIdSaIdEE5beginEv, symObjAddr: 0xEC00, symBinAddr: 0x1000107D8, symSize: 0x24 }
  - { offsetInCU: 0x4F3DF, offset: 0x4F3DF, size: 0x8, addend: 0x0, symName: __ZNSt5dequeIdSaIdEE9push_backERKd, symObjAddr: 0xEB34, symBinAddr: 0x10001070C, symSize: 0xCC }
  - { offsetInCU: 0x4F486, offset: 0x4F486, size: 0x8, addend: 0x0, symName: __ZNSt5dequeIdSaIdEE9push_backEOd, symObjAddr: 0xEB04, symBinAddr: 0x1000106DC, symSize: 0x30 }
  - { offsetInCU: 0x4F4F9, offset: 0x4F4F9, size: 0x8, addend: 0x0, symName: __ZNSt5dequeIdSaIdEED1Ev, symObjAddr: 0xEA9C, symBinAddr: 0x100010674, symSize: 0x68 }
  - { offsetInCU: 0x4F54B, offset: 0x4F54B, size: 0x8, addend: 0x0, symName: __ZNSt11_Deque_baseIdSaIdEED2Ev, symObjAddr: 0xEA30, symBinAddr: 0x100010608, symSize: 0x6C }
  - { offsetInCU: 0x4F58B, offset: 0x4F58B, size: 0x8, addend: 0x0, symName: __ZNSt11_Deque_baseIdSaIdEEC2Ev, symObjAddr: 0xE9E8, symBinAddr: 0x1000105C0, symSize: 0x48 }
  - { offsetInCU: 0x4F5E6, offset: 0x4F5E6, size: 0x8, addend: 0x0, symName: __ZNSt11_Deque_baseIdSaIdEE11_Deque_implD1Ev, symObjAddr: 0xE9BC, symBinAddr: 0x100010594, symSize: 0x2C }
  - { offsetInCU: 0x4F649, offset: 0x4F649, size: 0x8, addend: 0x0, symName: __ZNSt6vectorIdSaIdEEC1ERKS1_, symObjAddr: 0xE8A8, symBinAddr: 0x100010480, symSize: 0x114 }
  - { offsetInCU: 0x4F77C, offset: 0x4F77C, size: 0x8, addend: 0x0, symName: __ZNSt6vectorIdSaIdEED1Ev, symObjAddr: 0xE84C, symBinAddr: 0x100010424, symSize: 0x5C }
  - { offsetInCU: 0x4F824, offset: 0x4F824, size: 0x8, addend: 0x0, symName: __ZNSt6vectorIdSaIdEEC1EmRKdRKS0_, symObjAddr: 0xE7DC, symBinAddr: 0x1000103B4, symSize: 0x70 }
  - { offsetInCU: 0x4F848, offset: 0x4F848, size: 0x8, addend: 0x0, symName: __ZNSt6vectorIdSaIdEEaSERKS1_, symObjAddr: 0xE494, symBinAddr: 0x10001006C, symSize: 0x348 }
  - { offsetInCU: 0x4F9C5, offset: 0x4F9C5, size: 0x8, addend: 0x0, symName: __ZSt11__addressofIKSt6vectorIdSaIdEEEPT_RS4_, symObjAddr: 0xE480, symBinAddr: 0x100010058, symSize: 0x14 }
  - { offsetInCU: 0x4F9FB, offset: 0x4F9FB, size: 0x8, addend: 0x0, symName: __ZNSt6vectorIdSaIdEEixEm, symObjAddr: 0xE3FC, symBinAddr: 0x10000FFD4, symSize: 0x84 }
  - { offsetInCU: 0x4FAAB, offset: 0x4FAAB, size: 0x8, addend: 0x0, symName: __ZNSt6vectorIdSaIdEEC1EmRKS0_, symObjAddr: 0xE394, symBinAddr: 0x10000FF6C, symSize: 0x68 }
  - { offsetInCU: 0x4FADF, offset: 0x4FADF, size: 0x8, addend: 0x0, symName: __ZNKSt6vectorIdSaIdEEixEm, symObjAddr: 0xE310, symBinAddr: 0x10000FEE8, symSize: 0x84 }
  - { offsetInCU: 0x4FB3F, offset: 0x4FB3F, size: 0x8, addend: 0x0, symName: __ZNSt4pairIiiEaSEOS0_, symObjAddr: 0xE2C8, symBinAddr: 0x10000FEA0, symSize: 0x48 }
  - { offsetInCU: 0x4FBDF, offset: 0x4FBDF, size: 0x8, addend: 0x0, symName: __ZNSt4pairIiiEC1IiiLb1EEEOT_OT0_, symObjAddr: 0xE280, symBinAddr: 0x10000FE58, symSize: 0x48 }
  - { offsetInCU: 0x4FC0C, offset: 0x4FC0C, size: 0x8, addend: 0x0, symName: __ZNSt6vectorISt4pairIiiESaIS1_EEixEm, symObjAddr: 0xE1FC, symBinAddr: 0x10000FDD4, symSize: 0x84 }
  - { offsetInCU: 0x4FCB1, offset: 0x4FCB1, size: 0x8, addend: 0x0, symName: __ZNSt6vectorISt4pairIiiESaIS1_EED1Ev, symObjAddr: 0xE1A0, symBinAddr: 0x10000FD78, symSize: 0x5C }
  - { offsetInCU: 0x4FD5B, offset: 0x4FD5B, size: 0x8, addend: 0x0, symName: __ZNSt6vectorISt4pairIiiESaIS1_EEC1EmRKS1_RKS2_, symObjAddr: 0xE130, symBinAddr: 0x10000FD08, symSize: 0x70 }
  - { offsetInCU: 0x4FDA3, offset: 0x4FDA3, size: 0x8, addend: 0x0, symName: __ZSt9make_pairIiiESt4pairINSt25__strip_reference_wrapperINSt5decayIT_E4typeEE6__typeENS1_INS2_IT0_E4typeEE6__typeEEOS3_OS8_, symObjAddr: 0xE0E4, symBinAddr: 0x10000FCBC, symSize: 0x4C }
  - { offsetInCU: 0x4FDF0, offset: 0x4FDF0, size: 0x8, addend: 0x0, symName: __ZStplIcSt11char_traitsIcESaIcEENSt7__cxx1112basic_stringIT_T0_T1_EEOS8_S9_, symObjAddr: 0xDFFC, symBinAddr: 0x10000FBD4, symSize: 0xE8 }
  - { offsetInCU: 0x4FE7B, offset: 0x4FE7B, size: 0x8, addend: 0x0, symName: __ZStplIcSt11char_traitsIcESaIcEENSt7__cxx1112basic_stringIT_T0_T1_EEOS8_PKS5_, symObjAddr: 0xDFB8, symBinAddr: 0x10000FB90, symSize: 0x44 }
  - { offsetInCU: 0x4FED5, offset: 0x4FED5, size: 0x8, addend: 0x0, symName: __ZNKSt6vectorIdSaIdEE4sizeEv, symObjAddr: 0xDF90, symBinAddr: 0x10000FB68, symSize: 0x28 }
  - { offsetInCU: 0x4FEFF, offset: 0x4FEFF, size: 0x8, addend: 0x0, symName: __ZNSt6vectorIxSaIxEEixEm, symObjAddr: 0xDF0C, symBinAddr: 0x10000FAE4, symSize: 0x84 }
  - { offsetInCU: 0x4FF5F, offset: 0x4FF5F, size: 0x8, addend: 0x0, symName: __ZNSt6vectorIS_IxSaIxEESaIS1_EEixEm, symObjAddr: 0xDE7C, symBinAddr: 0x10000FA54, symSize: 0x90 }
  - { offsetInCU: 0x50003, offset: 0x50003, size: 0x8, addend: 0x0, symName: __ZNSt6vectorIS_IxSaIxEESaIS1_EED1Ev, symObjAddr: 0xDE20, symBinAddr: 0x10000F9F8, symSize: 0x5C }
  - { offsetInCU: 0x500AD, offset: 0x500AD, size: 0x8, addend: 0x0, symName: __ZNSt6vectorIS_IxSaIxEESaIS1_EEC1EmRKS1_RKS2_, symObjAddr: 0xDDB0, symBinAddr: 0x10000F988, symSize: 0x70 }
  - { offsetInCU: 0x50133, offset: 0x50133, size: 0x8, addend: 0x0, symName: __ZNSt6vectorIxSaIxEED1Ev, symObjAddr: 0xDD54, symBinAddr: 0x10000F92C, symSize: 0x5C }
  - { offsetInCU: 0x501DB, offset: 0x501DB, size: 0x8, addend: 0x0, symName: __ZNSt6vectorIxSaIxEEC1EmRKxRKS0_, symObjAddr: 0xDCE4, symBinAddr: 0x10000F8BC, symSize: 0x70 }
  - { offsetInCU: 0x50296, offset: 0x50296, size: 0x8, addend: 0x0, symName: __ZNSt6vectorIiSaIiEEC1EmRKiRKS0_, symObjAddr: 0xDC74, symBinAddr: 0x10000F84C, symSize: 0x70 }
  - { offsetInCU: 0x502BA, offset: 0x502BA, size: 0x8, addend: 0x0, symName: __ZNSt6vectorIiSaIiEE9push_backEOi, symObjAddr: 0xDC44, symBinAddr: 0x10000F81C, symSize: 0x30 }
  - { offsetInCU: 0x502F5, offset: 0x502F5, size: 0x8, addend: 0x0, symName: __ZNSt6vectorIiSaIiEE12emplace_backIJRiEEES3_DpOT_, symObjAddr: 0xDB6C, symBinAddr: 0x10000F744, symSize: 0xD8 }
  - { offsetInCU: 0x503A0, offset: 0x503A0, size: 0x8, addend: 0x0, symName: __ZSt7reverseIN9__gnu_cxx17__normal_iteratorIPiSt6vectorIiSaIiEEEEEvT_S7_, symObjAddr: 0xDB40, symBinAddr: 0x10000F718, symSize: 0x2C }
  - { offsetInCU: 0x50405, offset: 0x50405, size: 0x8, addend: 0x0, symName: __ZSt7shuffleIN9__gnu_cxx17__normal_iteratorIPiSt6vectorIiSaIiEEEERSt23mersenne_twister_engineIjLm32ELm624ELm397ELm31ELj2567483615ELm11ELj4294967295ELm7ELj2636928640ELm15ELj4022730752ELm18ELj1812433253EEEvT_SA_OT0_, symObjAddr: 0xD938, symBinAddr: 0x10000F510, symSize: 0x208 }
  - { offsetInCU: 0x50614, offset: 0x50614, size: 0x8, addend: 0x0, symName: __ZNSt23mersenne_twister_engineIjLm32ELm624ELm397ELm31ELj2567483615ELm11ELj4294967295ELm7ELj2636928640ELm15ELj4022730752ELm18ELj1812433253EEC1Ej, symObjAddr: 0xD910, symBinAddr: 0x10000F4E8, symSize: 0x28 }
  - { offsetInCU: 0x505B7, offset: 0x505B7, size: 0x8, addend: 0x0, symName: __ZNKSt6chrono10time_pointINS_3_V212steady_clockENS_8durationIxSt5ratioILl1ELl1000000000EEEEE16time_since_epochEv, symObjAddr: 0xD8F8, symBinAddr: 0x10000F4D0, symSize: 0x18 }
  - { offsetInCU: 0x505E1, offset: 0x505E1, size: 0x8, addend: 0x0, symName: __ZNSt6vectorIiSaIiEE9push_backERKi, symObjAddr: 0xD830, symBinAddr: 0x10000F408, symSize: 0xC8 }
  - { offsetInCU: 0x50688, offset: 0x50688, size: 0x8, addend: 0x0, symName: __ZNSt6vectorIiSaIiEE4swapERS1_, symObjAddr: 0xD768, symBinAddr: 0x10000F340, symSize: 0xC8 }
  - { offsetInCU: 0x5076A, offset: 0x5076A, size: 0x8, addend: 0x0, symName: __ZSteqIiSaIiEEbRKSt6vectorIT_T0_ES6_, symObjAddr: 0xD6E4, symBinAddr: 0x10000F2BC, symSize: 0x84 }
  - { offsetInCU: 0x507BB, offset: 0x507BB, size: 0x8, addend: 0x0, symName: __ZNSt6vectorIS_IiSaIiEESaIS1_EEixEm, symObjAddr: 0xD654, symBinAddr: 0x10000F22C, symSize: 0x90 }
  - { offsetInCU: 0x5085F, offset: 0x5085F, size: 0x8, addend: 0x0, symName: __ZNSt6vectorIS_IiSaIiEESaIS1_EED1Ev, symObjAddr: 0xD5F8, symBinAddr: 0x10000F1D0, symSize: 0x5C }
  - { offsetInCU: 0x50909, offset: 0x50909, size: 0x8, addend: 0x0, symName: __ZNSt6vectorIS_IiSaIiEESaIS1_EEC1EmRKS1_RKS2_, symObjAddr: 0xD588, symBinAddr: 0x10000F160, symSize: 0x70 }
  - { offsetInCU: 0x50956, offset: 0x50956, size: 0x8, addend: 0x0, symName: __ZNKSt6vectorIiSaIiEE4sizeEv, symObjAddr: 0xD560, symBinAddr: 0x10000F138, symSize: 0x28 }
  - { offsetInCU: 0x5097C, offset: 0x5097C, size: 0x8, addend: 0x0, symName: __ZSt4sortIN9__gnu_cxx17__normal_iteratorIPiSt6vectorIiSaIiEEEEZ30shortest_processing_time_ordervEUliiE_EvT_S8_T0_, symObjAddr: 0xD520, symBinAddr: 0x10000F0F8, symSize: 0x40 }
  - { offsetInCU: 0x509DA, offset: 0x509DA, size: 0x8, addend: 0x0, symName: __ZSt4sortIN9__gnu_cxx17__normal_iteratorIPiSt6vectorIiSaIiEEEEZ15greedy_backwardvEUliiE_EvT_S8_T0_, symObjAddr: 0xD4E0, symBinAddr: 0x10000F0B8, symSize: 0x40 }
  - { offsetInCU: 0x50A3C, offset: 0x50A3C, size: 0x8, addend: 0x0, symName: __ZNSt6vectorIiSaIiEEaSERKS1_, symObjAddr: 0xD198, symBinAddr: 0x10000ED70, symSize: 0x348 }
  - { offsetInCU: 0x50BC0, offset: 0x50BC0, size: 0x8, addend: 0x0, symName: __ZSt11__addressofIKSt6vectorIiSaIiEEEPT_RS4_, symObjAddr: 0xD184, symBinAddr: 0x10000ED5C, symSize: 0x14 }
  - { offsetInCU: 0x50BF2, offset: 0x50BF2, size: 0x8, addend: 0x0, symName: __ZSt4swapIiENSt9enable_ifIXsrSt6__and_IJSt6__not_ISt15__is_tuple_likeIT_EESt21is_move_constructibleIS4_ESt18is_move_assignableIS4_EEE5valueEvE4typeERS4_SE_, symObjAddr: 0xD130, symBinAddr: 0x10000ED08, symSize: 0x54 }
  - { offsetInCU: 0x50C4B, offset: 0x50C4B, size: 0x8, addend: 0x0, symName: __ZSt4moveIRiEONSt16remove_referenceIT_E4typeEOS2_, symObjAddr: 0xD11C, symBinAddr: 0x10000ECF4, symSize: 0x14 }
  - { offsetInCU: 0x50CC2, offset: 0x50CC2, size: 0x8, addend: 0x0, symName: __ZNSt6vectorIiSaIiEEC1ERKS1_, symObjAddr: 0xD008, symBinAddr: 0x10000EBE0, symSize: 0x114 }
  - { offsetInCU: 0x50DB8, offset: 0x50DB8, size: 0x8, addend: 0x0, symName: __ZSt4sortIN9__gnu_cxx17__normal_iteratorIPiSt6vectorIiSaIiEEEEZ15greedy_fordwardvEUliiE_EvT_S8_T0_, symObjAddr: 0xCFC8, symBinAddr: 0x10000EBA0, symSize: 0x40 }
  - { offsetInCU: 0x50E16, offset: 0x50E16, size: 0x8, addend: 0x0, symName: __ZSt4iotaIN9__gnu_cxx17__normal_iteratorIPiSt6vectorIiSaIiEEEEiEvT_S7_T0_, symObjAddr: 0xCF5C, symBinAddr: 0x10000EB34, symSize: 0x6C }
  - { offsetInCU: 0x50EC9, offset: 0x50EC9, size: 0x8, addend: 0x0, symName: __ZNSt12_Vector_baseIiSaIiEE12_Vector_implC1EOS2_, symObjAddr: 0xCEF0, symBinAddr: 0x10000EAC8, symSize: 0x6C }
  - { offsetInCU: 0x50F23, offset: 0x50F23, size: 0x8, addend: 0x0, symName: __ZNSt6vectorIiSaIiEEixEm, symObjAddr: 0xCE6C, symBinAddr: 0x10000EA44, symSize: 0x84 }
  - { offsetInCU: 0x50F7F, offset: 0x50F7F, size: 0x8, addend: 0x0, symName: __ZStltIxiEbRKSt4pairIT_T0_ES5_, symObjAddr: 0xCE04, symBinAddr: 0x10000E9DC, symSize: 0x68 }
  - { offsetInCU: 0x50FCC, offset: 0x50FCC, size: 0x8, addend: 0x0, symName: __ZSt9make_pairIRxRiESt4pairINSt25__strip_reference_wrapperINSt5decayIT_E4typeEE6__typeENS3_INS4_IT0_E4typeEE6__typeEEOS5_OSA_, symObjAddr: 0xCDB8, symBinAddr: 0x10000E990, symSize: 0x4C }
  - { offsetInCU: 0x5101D, offset: 0x5101D, size: 0x8, addend: 0x0, symName: __ZNSt6vectorIbSaIbEEixEm, symObjAddr: 0xCD88, symBinAddr: 0x10000E960, symSize: 0x30 }
  - { offsetInCU: 0x51091, offset: 0x51091, size: 0x8, addend: 0x0, symName: __ZNSt6vectorIiSaIiEED1Ev, symObjAddr: 0xCD2C, symBinAddr: 0x10000E904, symSize: 0x5C }
  - { offsetInCU: 0x51128, offset: 0x51128, size: 0x8, addend: 0x0, symName: __ZNSt6vectorIiSaIiEEC1EmRKS0_, symObjAddr: 0xCCC4, symBinAddr: 0x10000E89C, symSize: 0x68 }
  - { offsetInCU: 0x51195, offset: 0x51195, size: 0x8, addend: 0x0, symName: __ZNSt6vectorIbSaIbEED1Ev, symObjAddr: 0xCCA4, symBinAddr: 0x10000E87C, symSize: 0x20 }
  - { offsetInCU: 0x511F6, offset: 0x511F6, size: 0x8, addend: 0x0, symName: __ZNSt6vectorIbSaIbEEC1EmRKS0_, symObjAddr: 0xCC68, symBinAddr: 0x10000E840, symSize: 0x3C }
  - { offsetInCU: 0x5124A, offset: 0x5124A, size: 0x8, addend: 0x0, symName: __ZNK9__gnu_cxx17__normal_iteratorIPiSt6vectorIiSaIiEEEdeEv, symObjAddr: 0xCC50, symBinAddr: 0x10000E828, symSize: 0x18 }
  - { offsetInCU: 0x51274, offset: 0x51274, size: 0x8, addend: 0x0, symName: __ZN9__gnu_cxx17__normal_iteratorIPiSt6vectorIiSaIiEEEppEv, symObjAddr: 0xCC28, symBinAddr: 0x10000E800, symSize: 0x28 }
  - { offsetInCU: 0x5129A, offset: 0x5129A, size: 0x8, addend: 0x0, symName: __ZN9__gnu_cxxneIPiSt6vectorIiSaIiEEEEbRKNS_17__normal_iteratorIT_T0_EESA_, symObjAddr: 0xCBE4, symBinAddr: 0x10000E7BC, symSize: 0x44 }
  - { offsetInCU: 0x512EB, offset: 0x512EB, size: 0x8, addend: 0x0, symName: __ZNSt6vectorIiSaIiEE3endEv, symObjAddr: 0xCBBC, symBinAddr: 0x10000E794, symSize: 0x28 }
  - { offsetInCU: 0x51315, offset: 0x51315, size: 0x8, addend: 0x0, symName: __ZNSt6vectorIiSaIiEE5beginEv, symObjAddr: 0xCB98, symBinAddr: 0x10000E770, symSize: 0x24 }
  - { offsetInCU: 0x5133F, offset: 0x5133F, size: 0x8, addend: 0x0, symName: __ZNK9__gnu_cxx17__normal_iteratorIPKiSt6vectorIiSaIiEEEdeEv, symObjAddr: 0xCB80, symBinAddr: 0x10000E758, symSize: 0x18 }
  - { offsetInCU: 0x51369, offset: 0x51369, size: 0x8, addend: 0x0, symName: __ZN9__gnu_cxx17__normal_iteratorIPKiSt6vectorIiSaIiEEEppEv, symObjAddr: 0xCB58, symBinAddr: 0x10000E730, symSize: 0x28 }
  - { offsetInCU: 0x5138F, offset: 0x5138F, size: 0x8, addend: 0x0, symName: __ZN9__gnu_cxxneIPKiSt6vectorIiSaIiEEEEbRKNS_17__normal_iteratorIT_T0_EESB_, symObjAddr: 0xCB14, symBinAddr: 0x10000E6EC, symSize: 0x44 }
  - { offsetInCU: 0x513E0, offset: 0x513E0, size: 0x8, addend: 0x0, symName: __ZNKSt6vectorIiSaIiEE3endEv, symObjAddr: 0xCAEC, symBinAddr: 0x10000E6C4, symSize: 0x28 }
  - { offsetInCU: 0x5140A, offset: 0x5140A, size: 0x8, addend: 0x0, symName: __ZNKSt6vectorIiSaIiEE5beginEv, symObjAddr: 0xCAC8, symBinAddr: 0x10000E6A0, symSize: 0x24 }
  - { offsetInCU: 0x51434, offset: 0x51434, size: 0x8, addend: 0x0, symName: __ZNKSt6vectorIP4NodeSaIS1_EE4sizeEv, symObjAddr: 0xCAA0, symBinAddr: 0x10000E678, symSize: 0x28 }
  - { offsetInCU: 0x5145E, offset: 0x5145E, size: 0x8, addend: 0x0, symName: __ZNK9__gnu_cxx17__normal_iteratorIPP4NodeSt6vectorIS2_SaIS2_EEEdeEv, symObjAddr: 0xCA88, symBinAddr: 0x10000E660, symSize: 0x18 }
  - { offsetInCU: 0x51488, offset: 0x51488, size: 0x8, addend: 0x0, symName: __ZN9__gnu_cxx17__normal_iteratorIPP4NodeSt6vectorIS2_SaIS2_EEEppEv, symObjAddr: 0xCA60, symBinAddr: 0x10000E638, symSize: 0x28 }
  - { offsetInCU: 0x514AE, offset: 0x514AE, size: 0x8, addend: 0x0, symName: __ZN9__gnu_cxxneIPP4NodeSt6vectorIS2_SaIS2_EEEEbRKNS_17__normal_iteratorIT_T0_EESC_, symObjAddr: 0xCA1C, symBinAddr: 0x10000E5F4, symSize: 0x44 }
  - { offsetInCU: 0x514FF, offset: 0x514FF, size: 0x8, addend: 0x0, symName: __ZNSt6vectorIP4NodeSaIS1_EE3endEv, symObjAddr: 0xC9F4, symBinAddr: 0x10000E5CC, symSize: 0x28 }
  - { offsetInCU: 0x51529, offset: 0x51529, size: 0x8, addend: 0x0, symName: __ZNSt6vectorIP4NodeSaIS1_EE5beginEv, symObjAddr: 0xC9D0, symBinAddr: 0x10000E5A8, symSize: 0x24 }
  - { offsetInCU: 0x51553, offset: 0x51553, size: 0x8, addend: 0x0, symName: __ZNSt6vectorIySaIyEEaSEOS1_, symObjAddr: 0xC98C, symBinAddr: 0x10000E564, symSize: 0x44 }
  - { offsetInCU: 0x5159F, offset: 0x5159F, size: 0x8, addend: 0x0, symName: __ZNSt6vectorIP4NodeSaIS1_EE8pop_backEv, symObjAddr: 0xC8F0, symBinAddr: 0x10000E4C8, symSize: 0x9C }
  - { offsetInCU: 0x51648, offset: 0x51648, size: 0x8, addend: 0x0, symName: __ZNKSt6vectorIP4NodeSaIS1_EE5emptyEv, symObjAddr: 0xC8B8, symBinAddr: 0x10000E490, symSize: 0x38 }
  - { offsetInCU: 0x51672, offset: 0x51672, size: 0x8, addend: 0x0, symName: __ZNSt6vectorIP4NodeSaIS1_EE9push_backERKS1_, symObjAddr: 0xC7F0, symBinAddr: 0x10000E3C8, symSize: 0xC8 }
  - { offsetInCU: 0x51719, offset: 0x51719, size: 0x8, addend: 0x0, symName: __ZNSt6vectorIP4NodeSaIS1_EE4backEv, symObjAddr: 0xC774, symBinAddr: 0x10000E34C, symSize: 0x7C }
  - { offsetInCU: 0x51768, offset: 0x51768, size: 0x8, addend: 0x0, symName: __ZNSt6vectorIP4NodeSaIS1_EE9push_backEOS1_, symObjAddr: 0xC744, symBinAddr: 0x10000E31C, symSize: 0x30 }
  - { offsetInCU: 0x517A3, offset: 0x517A3, size: 0x8, addend: 0x0, symName: __ZNSt6vectorIP4NodeSaIS1_EE7reserveEm, symObjAddr: 0xC608, symBinAddr: 0x10000E1E0, symSize: 0x13C }
  - { offsetInCU: 0x51850, offset: 0x51850, size: 0x8, addend: 0x0, symName: __ZNSt6vectorIP4NodeSaIS1_EED1Ev, symObjAddr: 0xC5AC, symBinAddr: 0x10000E184, symSize: 0x5C }
  - { offsetInCU: 0x518D7, offset: 0x518D7, size: 0x8, addend: 0x0, symName: __ZNSt12_Vector_baseIP4NodeSaIS1_EED2Ev, symObjAddr: 0xC55C, symBinAddr: 0x10000E134, symSize: 0x50 }
  - { offsetInCU: 0x51945, offset: 0x51945, size: 0x8, addend: 0x0, symName: __ZNSt12_Vector_baseIP4NodeSaIS1_EE12_Vector_implC1Ev, symObjAddr: 0xC524, symBinAddr: 0x10000E0FC, symSize: 0x38 }
  - { offsetInCU: 0x519B9, offset: 0x519B9, size: 0x8, addend: 0x0, symName: __ZNSt6vectorIySaIyEED1Ev, symObjAddr: 0xC4C8, symBinAddr: 0x10000E0A0, symSize: 0x5C }
  - { offsetInCU: 0x51A40, offset: 0x51A40, size: 0x8, addend: 0x0, symName: __ZNSt12_Vector_baseIySaIyEED2Ev, symObjAddr: 0xC478, symBinAddr: 0x10000E050, symSize: 0x50 }
  - { offsetInCU: 0x51AAE, offset: 0x51AAE, size: 0x8, addend: 0x0, symName: __ZNSt12_Vector_baseIySaIyEE12_Vector_implC1Ev, symObjAddr: 0xC440, symBinAddr: 0x10000E018, symSize: 0x38 }
  - { offsetInCU: 0x51AF0, offset: 0x51AF0, size: 0x8, addend: 0x0, symName: __ZNSt6vectorIySaIyEEixEm, symObjAddr: 0xC3BC, symBinAddr: 0x10000DF94, symSize: 0x84 }
  - { offsetInCU: 0x51B50, offset: 0x51B50, size: 0x8, addend: 0x0, symName: __ZNKSt6vectorIySaIyEEixEm, symObjAddr: 0xC338, symBinAddr: 0x10000DF10, symSize: 0x84 }
  - { offsetInCU: 0x51BB2, offset: 0x51BB2, size: 0x8, addend: 0x0, symName: __ZNKSt6vectorIySaIyEE5emptyEv, symObjAddr: 0xC300, symBinAddr: 0x10000DED8, symSize: 0x38 }
  - { offsetInCU: 0x51BDC, offset: 0x51BDC, size: 0x8, addend: 0x0, symName: __ZNSt6vectorIySaIyEE6resizeEm, symObjAddr: 0xC250, symBinAddr: 0x10000DE28, symSize: 0xB0 }
  - { offsetInCU: 0x51C17, offset: 0x51C17, size: 0x8, addend: 0x0, symName: __ZNKSt6vectorIySaIyEE4sizeEv, symObjAddr: 0xC228, symBinAddr: 0x10000DE00, symSize: 0x28 }
  - { offsetInCU: 0x51C96, offset: 0x51C96, size: 0x8, addend: 0x0, symName: __ZNSt8_Rb_treeIiiSt9_IdentityIiESt4lessIiESaIiEED1Ev, symObjAddr: 0xC1F4, symBinAddr: 0x10000DDCC, symSize: 0x34 }
  - { offsetInCU: 0x51D0E, offset: 0x51D0E, size: 0x8, addend: 0x0, symName: __ZNSt8_Rb_treeIiiSt9_IdentityIiESt4lessIiESaIiEE13_Rb_tree_implIS3_Lb1EEC1Ev, symObjAddr: 0xC1B0, symBinAddr: 0x10000DD88, symSize: 0x44 }
  - { offsetInCU: 0x51D72, offset: 0x51D72, size: 0x8, addend: 0x0, symName: __ZNSt12_Vector_baseIdSaIdEED2Ev, symObjAddr: 0xC160, symBinAddr: 0x10000DD38, symSize: 0x50 }
  - { offsetInCU: 0x51DE0, offset: 0x51DE0, size: 0x8, addend: 0x0, symName: __ZNSt12_Vector_baseIdSaIdEE12_Vector_implC1Ev, symObjAddr: 0xC128, symBinAddr: 0x10000DD00, symSize: 0x38 }
  - { offsetInCU: 0x51E62, offset: 0x51E62, size: 0x8, addend: 0x0, symName: __ZNSt12_Vector_baseIiSaIiEED2Ev, symObjAddr: 0xC0D8, symBinAddr: 0x10000DCB0, symSize: 0x50 }
  - { offsetInCU: 0x51ED0, offset: 0x51ED0, size: 0x8, addend: 0x0, symName: __ZNSt12_Vector_baseIiSaIiEE12_Vector_implC1Ev, symObjAddr: 0xC0A0, symBinAddr: 0x10000DC78, symSize: 0x38 }
  - { offsetInCU: 0x51F15, offset: 0x51F15, size: 0x8, addend: 0x0, symName: __ZSt4moveIRNSt7__cxx1112basic_stringIcSt11char_traitsIcESaIcEEEEONSt16remove_referenceIT_E4typeEOS8_, symObjAddr: 0xC08C, symBinAddr: 0x10000DC64, symSize: 0x14 }
  - { offsetInCU: 0x51FF4, offset: 0x51FF4, size: 0x8, addend: 0x0, symName: __ZNSt7__cxx1112basic_stringIcSt11char_traitsIcESaIcEEC1IS3_EEPKcRKS3_, symObjAddr: 0xBFF0, symBinAddr: 0x10000DBC8, symSize: 0x9C }
  - { offsetInCU: 0x52013, offset: 0x52013, size: 0x8, addend: 0x0, symName: __ZStplIcSt11char_traitsIcESaIcEENSt7__cxx1112basic_stringIT_T0_T1_EEPKS5_OS8_, symObjAddr: 0xBFA8, symBinAddr: 0x10000DB80, symSize: 0x48 }
  - { offsetInCU: 0x52069, offset: 0x52069, size: 0x8, addend: 0x0, symName: __ZSt3maxImERKT_S2_S2_, symObjAddr: 0xBF70, symBinAddr: 0x10000DB48, symSize: 0x38 }
  - { offsetInCU: 0x52105, offset: 0x52105, size: 0x8, addend: 0x0, symName: __ZN9__gnu_cxx12__to_xstringINSt7__cxx1112basic_stringIcSt11char_traitsIcESaIcEEEcEET_PFiPT0_mPKS8_PcEmSB_z, symObjAddr: 0xBE90, symBinAddr: 0x10000DA68, symSize: 0xE0 }
  - { offsetInCU: 0x52219, offset: 0x52219, size: 0x8, addend: 0x0, symName: __ZNSt7__cxx1112basic_stringIcSt11char_traitsIcESaIcEE22__resize_and_overwriteIZNS_9to_stringExEUlPcmE_EEvmT_, symObjAddr: 0xBE14, symBinAddr: 0x10000D9EC, symSize: 0x7C }
  - { offsetInCU: 0x52390, offset: 0x52390, size: 0x8, addend: 0x0, symName: __ZZNSt7__cxx1112basic_stringIcSt11char_traitsIcESaIcEE22__resize_and_overwriteIZNS_9to_stringExEUlPcmE_EEvmT_EN11_TerminatorD1Ev, symObjAddr: 0xBDE0, symBinAddr: 0x10000D9B8, symSize: 0x34 }
  - { offsetInCU: 0x52358, offset: 0x52358, size: 0x8, addend: 0x0, symName: __ZNSt8__detail18__to_chars_10_implIyEEvPcjT_, symObjAddr: 0xBC14, symBinAddr: 0x10000D7EC, symSize: 0x1CC }
  - { offsetInCU: 0x52418, offset: 0x52418, size: 0x8, addend: 0x0, symName: __ZNSt7__cxx1112basic_stringIcSt11char_traitsIcESaIcEE22__resize_and_overwriteIZNS_9to_stringEmEUlPcmE_EEvmT_, symObjAddr: 0xBB98, symBinAddr: 0x10000D770, symSize: 0x7C }
  - { offsetInCU: 0x5258F, offset: 0x5258F, size: 0x8, addend: 0x0, symName: __ZZNSt7__cxx1112basic_stringIcSt11char_traitsIcESaIcEE22__resize_and_overwriteIZNS_9to_stringEmEUlPcmE_EEvmT_EN11_TerminatorD1Ev, symObjAddr: 0xBB64, symBinAddr: 0x10000D73C, symSize: 0x34 }
  - { offsetInCU: 0x52557, offset: 0x52557, size: 0x8, addend: 0x0, symName: __ZNSt8__detail18__to_chars_10_implImEEvPcjT_, symObjAddr: 0xB998, symBinAddr: 0x10000D570, symSize: 0x1CC }
  - { offsetInCU: 0x52678, offset: 0x52678, size: 0x8, addend: 0x0, symName: __ZNSt7__cxx1112basic_stringIcSt11char_traitsIcESaIcEEC1EOS4_, symObjAddr: 0xB890, symBinAddr: 0x10000D468, symSize: 0x108 }
  - { offsetInCU: 0x526B6, offset: 0x526B6, size: 0x8, addend: 0x0, symName: __ZNSt7__cxx1112basic_stringIcSt11char_traitsIcESaIcEE22__resize_and_overwriteIZNS_9to_stringEiEUlPcmE_EEvmT_, symObjAddr: 0xB800, symBinAddr: 0x10000D3D8, symSize: 0x90 }
  - { offsetInCU: 0x5282D, offset: 0x5282D, size: 0x8, addend: 0x0, symName: __ZZNSt7__cxx1112basic_stringIcSt11char_traitsIcESaIcEE22__resize_and_overwriteIZNS_9to_stringEiEUlPcmE_EEvmT_EN11_TerminatorD1Ev, symObjAddr: 0xB7CC, symBinAddr: 0x10000D3A4, symSize: 0x34 }
  - { offsetInCU: 0x527F5, offset: 0x527F5, size: 0x8, addend: 0x0, symName: __ZNSt8__detail18__to_chars_10_implIjEEvPcjT_, symObjAddr: 0xB618, symBinAddr: 0x10000D1F0, symSize: 0x1B4 }
  - { offsetInCU: 0x5290F, offset: 0x5290F, size: 0x8, addend: 0x0, symName: __ZNSt7__cxx1112basic_stringIcSt11char_traitsIcESaIcEED1Ev, symObjAddr: 0xB5F0, symBinAddr: 0x10000D1C8, symSize: 0x28 }
  - { offsetInCU: 0x5294F, offset: 0x5294F, size: 0x8, addend: 0x0, symName: __ZNSt7__cxx1112basic_stringIcSt11char_traitsIcESaIcEEC1Ev, symObjAddr: 0xB57C, symBinAddr: 0x10000D154, symSize: 0x74 }
  - { offsetInCU: 0x52A33, offset: 0x52A33, size: 0x8, addend: 0x0, symName: __ZNSt7__cxx1112basic_stringIcSt11char_traitsIcESaIcEE12_Alloc_hiderD1Ev, symObjAddr: 0xB550, symBinAddr: 0x10000D128, symSize: 0x2C }
  - { offsetInCU: 0x52A34, offset: 0x52A34, size: 0x8, addend: 0x0, symName: __ZN9__gnu_cxx11char_traitsIcE6lengthEPKc, symObjAddr: 0xB4F8, symBinAddr: 0x10000D0D0, symSize: 0x58 }
  - { offsetInCU: 0x52A77, offset: 0x52A77, size: 0x8, addend: 0x0, symName: _main, symObjAddr: 0xB104, symBinAddr: 0x10000CCDC, symSize: 0x3F4 }
  - { offsetInCU: 0x52B94, offset: 0x52B94, size: 0x8, addend: 0x0, symName: __ZNSt10_Head_baseILm2EiLb0EE7_M_headERS0_, symObjAddr: 0xB0F0, symBinAddr: 0x10000CCC8, symSize: 0x14 }
  - { offsetInCU: 0x52BBD, offset: 0x52BBD, size: 0x8, addend: 0x0, symName: __ZNSt11_Tuple_implILm2EJiEE7_M_headERS0_, symObjAddr: 0xB0D4, symBinAddr: 0x10000CCAC, symSize: 0x1C }
  - { offsetInCU: 0x52BE7, offset: 0x52BE7, size: 0x8, addend: 0x0, symName: __ZSt12__get_helperILm2EiJEERT0_RSt11_Tuple_implIXT_EJS0_DpT1_EE, symObjAddr: 0xB0B8, symBinAddr: 0x10000CC90, symSize: 0x1C }
  - { offsetInCU: 0x52C30, offset: 0x52C30, size: 0x8, addend: 0x0, symName: __ZSt3getILm2EJiiiEEONSt13tuple_elementIXT_ESt5tupleIJDpT0_EEE4typeEOS4_, symObjAddr: 0xB098, symBinAddr: 0x10000CC70, symSize: 0x20 }
  - { offsetInCU: 0x52C79, offset: 0x52C79, size: 0x8, addend: 0x0, symName: __ZNSt10_Head_baseILm1EiLb0EE7_M_headERS0_, symObjAddr: 0xB084, symBinAddr: 0x10000CC5C, symSize: 0x14 }
  - { offsetInCU: 0x52CA2, offset: 0x52CA2, size: 0x8, addend: 0x0, symName: __ZNSt11_Tuple_implILm1EJiiEE7_M_headERS0_, symObjAddr: 0xB064, symBinAddr: 0x10000CC3C, symSize: 0x20 }
  - { offsetInCU: 0x52CCC, offset: 0x52CCC, size: 0x8, addend: 0x0, symName: __ZSt12__get_helperILm1EiJiEERT0_RSt11_Tuple_implIXT_EJS0_DpT1_EE, symObjAddr: 0xB048, symBinAddr: 0x10000CC20, symSize: 0x1C }
  - { offsetInCU: 0x52D1B, offset: 0x52D1B, size: 0x8, addend: 0x0, symName: __ZSt3getILm1EJiiiEEONSt13tuple_elementIXT_ESt5tupleIJDpT0_EEE4typeEOS4_, symObjAddr: 0xB028, symBinAddr: 0x10000CC00, symSize: 0x20 }
  - { offsetInCU: 0x52D64, offset: 0x52D64, size: 0x8, addend: 0x0, symName: __ZNSt10_Head_baseILm0EiLb0EE7_M_headERS0_, symObjAddr: 0xB014, symBinAddr: 0x10000CBEC, symSize: 0x14 }
  - { offsetInCU: 0x52D8D, offset: 0x52D8D, size: 0x8, addend: 0x0, symName: __ZNSt11_Tuple_implILm0EJiiiEE7_M_headERS0_, symObjAddr: 0xAFF4, symBinAddr: 0x10000CBCC, symSize: 0x20 }
  - { offsetInCU: 0x52DB7, offset: 0x52DB7, size: 0x8, addend: 0x0, symName: __ZSt12__get_helperILm0EiJiiEERT0_RSt11_Tuple_implIXT_EJS0_DpT1_EE, symObjAddr: 0xAFD8, symBinAddr: 0x10000CBB0, symSize: 0x1C }
  - { offsetInCU: 0x52E0B, offset: 0x52E0B, size: 0x8, addend: 0x0, symName: __ZSt3getILm0EJiiiEEONSt13tuple_elementIXT_ESt5tupleIJDpT0_EEE4typeEOS4_, symObjAddr: 0xAFB8, symBinAddr: 0x10000CB90, symSize: 0x20 }
  - { offsetInCU: 0x52E97, offset: 0x52E97, size: 0x8, addend: 0x0, symName: __ZNSt6vectorISt5tupleIJiiiEESaIS1_EEC1Ev, symObjAddr: 0xAF98, symBinAddr: 0x10000CB70, symSize: 0x20 }
  - { offsetInCU: 0x52EDE, offset: 0x52EDE, size: 0x8, addend: 0x0, symName: __ZNSt12_Vector_baseISt5tupleIJiiiEESaIS1_EEC2Ev, symObjAddr: 0xAF78, symBinAddr: 0x10000CB50, symSize: 0x20 }
  - { offsetInCU: 0x52F39, offset: 0x52F39, size: 0x8, addend: 0x0, symName: __ZNSt12_Vector_baseISt5tupleIJiiiEESaIS1_EE12_Vector_implD1Ev, symObjAddr: 0xAF4C, symBinAddr: 0x10000CB24, symSize: 0x2C }
  - { offsetInCU: 0x52F8C, offset: 0x52F8C, size: 0x8, addend: 0x0, symName: __Z23make_and_solve_graph_L2RKSt6vectorIdSaIdEE, symObjAddr: 0xA8B0, symBinAddr: 0x10000C488, symSize: 0x69C }
  - { offsetInCU: 0x53146, offset: 0x53146, size: 0x8, addend: 0x0, symName: __Z11clear_graphv, symObjAddr: 0xA538, symBinAddr: 0x10000C110, symSize: 0x378 }
  - { offsetInCU: 0x531F8, offset: 0x531F8, size: 0x8, addend: 0x0, symName: __Z19elimine_states_L2L2RKSt6vectorIdSaIdEE, symObjAddr: 0x9DE4, symBinAddr: 0x10000B9BC, symSize: 0x754 }
  - { offsetInCU: 0x533DD, offset: 0x533DD, size: 0x8, addend: 0x0, symName: __Z28compute_L2_solution_backwardv, symObjAddr: 0x9BD4, symBinAddr: 0x10000B7AC, symSize: 0x210 }
  - { offsetInCU: 0x5345E, offset: 0x5345E, size: 0x8, addend: 0x0, symName: __Z28compute_L2_solution_fordwardv, symObjAddr: 0x9958, symBinAddr: 0x10000B530, symSize: 0x27C }
  - { offsetInCU: 0x534CC, offset: 0x534CC, size: 0x8, addend: 0x0, symName: __Z11L2_backwardRKSt6vectorIdSaIdEE, symObjAddr: 0x9428, symBinAddr: 0x10000B000, symSize: 0x530 }
  - { offsetInCU: 0x5367E, offset: 0x5367E, size: 0x8, addend: 0x0, symName: __Z11L2_fordwardRKSt6vectorIdSaIdEE, symObjAddr: 0x8F68, symBinAddr: 0x10000AB40, symSize: 0x4C0 }
  - { offsetInCU: 0x5383E, offset: 0x5383E, size: 0x8, addend: 0x0, symName: __Z14subgradient_L2RSt6vectorIdSaIdEEdiiddd, symObjAddr: 0x899C, symBinAddr: 0x10000A574, symSize: 0x5CC }
  - { offsetInCU: 0x53AF6, offset: 0x53AF6, size: 0x8, addend: 0x0, symName: __Z6updateiP4Nodeid, symObjAddr: 0x88F4, symBinAddr: 0x10000A4CC, symSize: 0xA8 }
  - { offsetInCU: 0x53B72, offset: 0x53B72, size: 0x8, addend: 0x0, symName: __Z21init_global_variablesi, symObjAddr: 0x8764, symBinAddr: 0x10000A33C, symSize: 0x190 }
  - { offsetInCU: 0x53C35, offset: 0x53C35, size: 0x8, addend: 0x0, symName: __Z14free_all_nodesv, symObjAddr: 0x8678, symBinAddr: 0x10000A250, symSize: 0xEC }
  - { offsetInCU: 0x53CB2, offset: 0x53CB2, size: 0x8, addend: 0x0, symName: __Z5solvev, symObjAddr: 0x7BCC, symBinAddr: 0x1000097A4, symSize: 0xAAC }
  - { offsetInCU: 0x5410E, offset: 0x5410E, size: 0x8, addend: 0x0, symName: __Z6shrinkbb, symObjAddr: 0x736C, symBinAddr: 0x100008F44, symSize: 0x860 }
  - { offsetInCU: 0x541D9, offset: 0x541D9, size: 0x8, addend: 0x0, symName: __ZZ6shrinkbbENKUlP4NodeE_clES0_, symObjAddr: 0x729C, symBinAddr: 0x100008E74, symSize: 0xD0 }
  - { offsetInCU: 0x54477, offset: 0x54477, size: 0x8, addend: 0x0, symName: __Z14subgradient_L1diiddd, symObjAddr: 0x6AB8, symBinAddr: 0x100008690, symSize: 0x7E4 }
  - { offsetInCU: 0x548B7, offset: 0x548B7, size: 0x8, addend: 0x0, symName: __ZNSt5tupleIJSt6vectorIdSaIdEEdEED1Ev, symObjAddr: 0x6A98, symBinAddr: 0x100008670, symSize: 0x20 }
  - { offsetInCU: 0x54910, offset: 0x54910, size: 0x8, addend: 0x0, symName: __ZNSt11_Tuple_implILm0EJSt6vectorIdSaIdEEdEED2Ev, symObjAddr: 0x6A74, symBinAddr: 0x10000864C, symSize: 0x24 }
  - { offsetInCU: 0x5495D, offset: 0x5495D, size: 0x8, addend: 0x0, symName: __ZNSt10_Head_baseILm0ESt6vectorIdSaIdEELb0EED2Ev, symObjAddr: 0x6A54, symBinAddr: 0x10000862C, symSize: 0x20 }
  - { offsetInCU: 0x54956, offset: 0x54956, size: 0x8, addend: 0x0, symName: __ZNKSt6chrono10time_pointINS_3_V212system_clockENS_8durationIxSt5ratioILl1ELl1000000000EEEEE16time_since_epochEv, symObjAddr: 0x6A3C, symBinAddr: 0x100008614, symSize: 0x18 }
  - { offsetInCU: 0x54982, offset: 0x54982, size: 0x8, addend: 0x0, symName: __ZNSt6chronomiINS_3_V212system_clockENS_8durationIxSt5ratioILl1ELl1000000000EEEES6_EENSt11common_typeIJT0_T1_EE4typeERKNS_10time_pointIT_S8_EERKNSC_ISD_S9_EE, symObjAddr: 0x6A00, symBinAddr: 0x1000085D8, symSize: 0x3C }
  - { offsetInCU: 0x54A0A, offset: 0x54A0A, size: 0x8, addend: 0x0, symName: __ZNSt5dequeIdSaIdEEC1Ev, symObjAddr: 0x69E0, symBinAddr: 0x1000085B8, symSize: 0x20 }
  - { offsetInCU: 0x54A6B, offset: 0x54A6B, size: 0x8, addend: 0x0, symName: __Z18update_multipliersRSt6vectorIdSaIdEEddRKS_IiSaIiEEd, symObjAddr: 0x6784, symBinAddr: 0x10000835C, symSize: 0x25C }
  - { offsetInCU: 0x54C19, offset: 0x54C19, size: 0x8, addend: 0x0, symName: __Z12calc_cost_lbRKSt6vectorIiSaIiEERKS_IdSaIdEE, symObjAddr: 0x6258, symBinAddr: 0x100007E30, symSize: 0x52C }
  - { offsetInCU: 0x54CCB, offset: 0x54CCB, size: 0x8, addend: 0x0, symName: __Z18obtain_backward_L1v, symObjAddr: 0x609C, symBinAddr: 0x100007C74, symSize: 0x1BC }
  - { offsetInCU: 0x54D6C, offset: 0x54D6C, size: 0x8, addend: 0x0, symName: __Z11L1_backwardRKSt6vectorIdSaIdEE, symObjAddr: 0x59A0, symBinAddr: 0x100007578, symSize: 0x6FC }
  - { offsetInCU: 0x54F4A, offset: 0x54F4A, size: 0x8, addend: 0x0, symName: __Z18obtain_fordward_L1v, symObjAddr: 0x582C, symBinAddr: 0x100007404, symSize: 0x174 }
  - { offsetInCU: 0x54FEB, offset: 0x54FEB, size: 0x8, addend: 0x0, symName: __Z11L1_fordwardRKSt6vectorIdSaIdEE, symObjAddr: 0x5260, symBinAddr: 0x100006E38, symSize: 0x5CC }
  - { offsetInCU: 0x55180, offset: 0x55180, size: 0x8, addend: 0x0, symName: __ZNSt10__pair_getILm1EE5__getIiiEERT0_RSt4pairIT_S2_E, symObjAddr: 0x5248, symBinAddr: 0x100006E20, symSize: 0x18 }
  - { offsetInCU: 0x551BC, offset: 0x551BC, size: 0x8, addend: 0x0, symName: __ZSt3getILm1EiiERNSt13tuple_elementIXT_ESt4pairIT0_T1_EE4typeERS4_, symObjAddr: 0x522C, symBinAddr: 0x100006E04, symSize: 0x1C }
  - { offsetInCU: 0x55202, offset: 0x55202, size: 0x8, addend: 0x0, symName: __ZNSt10__pair_getILm0EE5__getIiiEERT_RSt4pairIS2_T0_E, symObjAddr: 0x5218, symBinAddr: 0x100006DF0, symSize: 0x14 }
  - { offsetInCU: 0x5523E, offset: 0x5523E, size: 0x8, addend: 0x0, symName: __ZSt3getILm0EiiERNSt13tuple_elementIXT_ESt4pairIT0_T1_EE4typeERS4_, symObjAddr: 0x51FC, symBinAddr: 0x100006DD4, symSize: 0x1C }
  - { offsetInCU: 0x55284, offset: 0x55284, size: 0x8, addend: 0x0, symName: __ZNSt10__pair_getILm1EE10__move_getIiiEEOT0_OSt4pairIT_S2_E, symObjAddr: 0x51DC, symBinAddr: 0x100006DB4, symSize: 0x20 }
  - { offsetInCU: 0x552C0, offset: 0x552C0, size: 0x8, addend: 0x0, symName: __ZSt3getILm1EiiEONSt13tuple_elementIXT_ESt4pairIT0_T1_EE4typeEOS4_, symObjAddr: 0x51BC, symBinAddr: 0x100006D94, symSize: 0x20 }
  - { offsetInCU: 0x5530C, offset: 0x5530C, size: 0x8, addend: 0x0, symName: __ZSt7forwardIiEOT_RNSt16remove_referenceIS0_E4typeE, symObjAddr: 0x51A8, symBinAddr: 0x100006D80, symSize: 0x14 }
  - { offsetInCU: 0x5533E, offset: 0x5533E, size: 0x8, addend: 0x0, symName: __ZNSt10__pair_getILm0EE10__move_getIiiEEOT_OSt4pairIS2_T0_E, symObjAddr: 0x518C, symBinAddr: 0x100006D64, symSize: 0x1C }
  - { offsetInCU: 0x55381, offset: 0x55381, size: 0x8, addend: 0x0, symName: __ZSt4moveIRSt4pairIiiEEONSt16remove_referenceIT_E4typeEOS4_, symObjAddr: 0x5178, symBinAddr: 0x100006D50, symSize: 0x14 }
  - { offsetInCU: 0x553B3, offset: 0x553B3, size: 0x8, addend: 0x0, symName: __ZSt3getILm0EiiEONSt13tuple_elementIXT_ESt4pairIT0_T1_EE4typeEOS4_, symObjAddr: 0x5158, symBinAddr: 0x100006D30, symSize: 0x20 }
  - { offsetInCU: 0x5543C, offset: 0x5543C, size: 0x8, addend: 0x0, symName: __Z18upper_bound_refineRSt6vectorIiSaIiEEibb, symObjAddr: 0x4470, symBinAddr: 0x100006048, symSize: 0xCE8 }
  - { offsetInCU: 0x55BED, offset: 0x55BED, size: 0x8, addend: 0x0, symName: __Z21greedy_sp_l2_backwardv, symObjAddr: 0x409C, symBinAddr: 0x100005C74, symSize: 0x3D4 }
  - { offsetInCU: 0x55E41, offset: 0x55E41, size: 0x8, addend: 0x0, symName: __Z12greedy_sp_l2v, symObjAddr: 0x3CEC, symBinAddr: 0x1000058C4, symSize: 0x3B0 }
  - { offsetInCU: 0x5607E, offset: 0x5607E, size: 0x8, addend: 0x0, symName: __Z9greedy_spv, symObjAddr: 0x3AF8, symBinAddr: 0x1000056D0, symSize: 0x1F4 }
  - { offsetInCU: 0x561DF, offset: 0x561DF, size: 0x8, addend: 0x0, symName: __Z10dynasearchSt6vectorIiSaIiEEii, symObjAddr: 0x2B58, symBinAddr: 0x100004730, symSize: 0xFA0 }
  - { offsetInCU: 0x567E3, offset: 0x567E3, size: 0x8, addend: 0x0, symName: __Z30shortest_processing_time_orderv, symObjAddr: 0x2A78, symBinAddr: 0x100004650, symSize: 0xE0 }
  - { offsetInCU: 0x56835, offset: 0x56835, size: 0x8, addend: 0x0, symName: __ZZ30shortest_processing_time_ordervENKUliiE_clEii, symObjAddr: 0x2A34, symBinAddr: 0x10000460C, symSize: 0x44 }
  - { offsetInCU: 0x56932, offset: 0x56932, size: 0x8, addend: 0x0, symName: __Z15greedy_backwardv, symObjAddr: 0x2864, symBinAddr: 0x10000443C, symSize: 0x1D0 }
  - { offsetInCU: 0x569A2, offset: 0x569A2, size: 0x8, addend: 0x0, symName: __ZZ15greedy_backwardvENKUliiE_clEii, symObjAddr: 0x2820, symBinAddr: 0x1000043F8, symSize: 0x44 }
  - { offsetInCU: 0x56B2F, offset: 0x56B2F, size: 0x8, addend: 0x0, symName: __Z16greedy_backward2v, symObjAddr: 0x2598, symBinAddr: 0x100004170, symSize: 0x288 }
  - { offsetInCU: 0x56D35, offset: 0x56D35, size: 0x8, addend: 0x0, symName: __Z15greedy_fordwardv, symObjAddr: 0x23C0, symBinAddr: 0x100003F98, symSize: 0x1D8 }
  - { offsetInCU: 0x56DA5, offset: 0x56DA5, size: 0x8, addend: 0x0, symName: __ZZ15greedy_fordwardvENKUliiE_clEii, symObjAddr: 0x237C, symBinAddr: 0x100003F54, symSize: 0x44 }
  - { offsetInCU: 0x56F32, offset: 0x56F32, size: 0x8, addend: 0x0, symName: __Z16greedy_fordward2v, symObjAddr: 0x20D4, symBinAddr: 0x100003CAC, symSize: 0x2A8 }
  - { offsetInCU: 0x5714A, offset: 0x5714A, size: 0x8, addend: 0x0, symName: __ZNSt6vectorIiSaIiEEC1EOS1_, symObjAddr: 0x20AC, symBinAddr: 0x100003C84, symSize: 0x28 }
  - { offsetInCU: 0x5719F, offset: 0x5719F, size: 0x8, addend: 0x0, symName: __ZNSt12_Vector_baseIiSaIiEEC2EOS1_, symObjAddr: 0x2084, symBinAddr: 0x100003C5C, symSize: 0x28 }
  - { offsetInCU: 0x571C1, offset: 0x571C1, size: 0x8, addend: 0x0, symName: __Z8print_ubv, symObjAddr: 0x1F9C, symBinAddr: 0x100003B74, symSize: 0xE8 }
  - { offsetInCU: 0x57243, offset: 0x57243, size: 0x8, addend: 0x0, symName: __Z9calc_costRKSt6vectorIiSaIiEE, symObjAddr: 0x1EF0, symBinAddr: 0x100003AC8, symSize: 0xAC }
  - { offsetInCU: 0x572C0, offset: 0x572C0, size: 0x8, addend: 0x0, symName: __Z1fii, symObjAddr: 0x1E68, symBinAddr: 0x100003A40, symSize: 0x88 }
  - { offsetInCU: 0x5731B, offset: 0x5731B, size: 0x8, addend: 0x0, symName: __Z10erase_edgeP4NodeS0_i, symObjAddr: 0x1DF4, symBinAddr: 0x1000039CC, symSize: 0x74 }
  - { offsetInCU: 0x57366, offset: 0x57366, size: 0x8, addend: 0x0, symName: __Z8add_edgeP4NodeS0_i, symObjAddr: 0x1D80, symBinAddr: 0x100003958, symSize: 0x74 }
  - { offsetInCU: 0x5739B, offset: 0x5739B, size: 0x8, addend: 0x0, symName: __ZN8NodePool10printStatsEv, symObjAddr: 0x1CA8, symBinAddr: 0x100003880, symSize: 0xD8 }
  - { offsetInCU: 0x57424, offset: 0x57424, size: 0x8, addend: 0x0, symName: __ZN8NodePoolD1Ev, symObjAddr: 0x1C00, symBinAddr: 0x1000037D8, symSize: 0xA8 }
  - { offsetInCU: 0x57497, offset: 0x57497, size: 0x8, addend: 0x0, symName: __ZN8NodePool10deallocateEP4Node, symObjAddr: 0x1BD4, symBinAddr: 0x1000037AC, symSize: 0x2C }
  - { offsetInCU: 0x574D1, offset: 0x574D1, size: 0x8, addend: 0x0, symName: __ZN8NodePool8allocateEi, symObjAddr: 0x1A5C, symBinAddr: 0x100003634, symSize: 0x178 }
  - { offsetInCU: 0x5755C, offset: 0x5755C, size: 0x8, addend: 0x0, symName: __ZN4NodeaSEOS_, symObjAddr: 0x1944, symBinAddr: 0x10000351C, symSize: 0x118 }
  - { offsetInCU: 0x5759F, offset: 0x5759F, size: 0x8, addend: 0x0, symName: __ZN4bsetaSEOS_, symObjAddr: 0x191C, symBinAddr: 0x1000034F4, symSize: 0x28 }
  - { offsetInCU: 0x57601, offset: 0x57601, size: 0x8, addend: 0x0, symName: __ZN4NodeD1Ev, symObjAddr: 0x18F8, symBinAddr: 0x1000034D0, symSize: 0x24 }
  - { offsetInCU: 0x57662, offset: 0x57662, size: 0x8, addend: 0x0, symName: __ZN8NodePoolC1Em, symObjAddr: 0x17D0, symBinAddr: 0x1000033A8, symSize: 0x128 }
  - { offsetInCU: 0x576DB, offset: 0x576DB, size: 0x8, addend: 0x0, symName: __ZNSt6vectorIP4NodeSaIS1_EEC1Ev, symObjAddr: 0x17B0, symBinAddr: 0x100003388, symSize: 0x20 }
  - { offsetInCU: 0x57722, offset: 0x57722, size: 0x8, addend: 0x0, symName: __ZNSt12_Vector_baseIP4NodeSaIS1_EEC2Ev, symObjAddr: 0x1790, symBinAddr: 0x100003368, symSize: 0x20 }
  - { offsetInCU: 0x5777D, offset: 0x5777D, size: 0x8, addend: 0x0, symName: __ZNSt12_Vector_baseIP4NodeSaIS1_EE12_Vector_implD1Ev, symObjAddr: 0x1764, symBinAddr: 0x10000333C, symSize: 0x2C }
  - { offsetInCU: 0x577E5, offset: 0x577E5, size: 0x8, addend: 0x0, symName: __ZN4NodeC1Ei, symObjAddr: 0x1690, symBinAddr: 0x100003268, symSize: 0xD4 }
  - { offsetInCU: 0x57888, offset: 0x57888, size: 0x8, addend: 0x0, symName: __ZN4NodeC1Ev, symObjAddr: 0x166C, symBinAddr: 0x100003244, symSize: 0x24 }
  - { offsetInCU: 0x578D5, offset: 0x578D5, size: 0x8, addend: 0x0, symName: __ZN4bsetD1Ev, symObjAddr: 0x164C, symBinAddr: 0x100003224, symSize: 0x20 }
  - { offsetInCU: 0x57918, offset: 0x57918, size: 0x8, addend: 0x0, symName: __ZN4bsetC1Ev, symObjAddr: 0x162C, symBinAddr: 0x100003204, symSize: 0x20 }
  - { offsetInCU: 0x57964, offset: 0x57964, size: 0x8, addend: 0x0, symName: __ZNSt6vectorIySaIyEEC1Ev, symObjAddr: 0x160C, symBinAddr: 0x1000031E4, symSize: 0x20 }
  - { offsetInCU: 0x579AB, offset: 0x579AB, size: 0x8, addend: 0x0, symName: __ZNSt12_Vector_baseIySaIyEEC2Ev, symObjAddr: 0x15EC, symBinAddr: 0x1000031C4, symSize: 0x20 }
  - { offsetInCU: 0x57A06, offset: 0x57A06, size: 0x8, addend: 0x0, symName: __ZNSt12_Vector_baseIySaIyEE12_Vector_implD1Ev, symObjAddr: 0x15C0, symBinAddr: 0x100003198, symSize: 0x2C }
  - { offsetInCU: 0x57A25, offset: 0x57A25, size: 0x8, addend: 0x0, symName: __ZNK4bset4nextEy, symObjAddr: 0x1458, symBinAddr: 0x100003030, symSize: 0x168 }
  - { offsetInCU: 0x57A8F, offset: 0x57A8F, size: 0x8, addend: 0x0, symName: __ZN4bset5unsetEy, symObjAddr: 0x13D0, symBinAddr: 0x100002FA8, symSize: 0x88 }
  - { offsetInCU: 0x57AC9, offset: 0x57AC9, size: 0x8, addend: 0x0, symName: __ZN4bset3setEy, symObjAddr: 0x1334, symBinAddr: 0x100002F0C, symSize: 0x9C }
  - { offsetInCU: 0x57B03, offset: 0x57B03, size: 0x8, addend: 0x0, symName: __ZN4bset6resizeEy, symObjAddr: 0x12FC, symBinAddr: 0x100002ED4, symSize: 0x38 }
  - { offsetInCU: 0x57B73, offset: 0x57B73, size: 0x8, addend: 0x0, symName: __ZNSt3setIiSt4lessIiESaIiEEC1Ev, symObjAddr: 0x12DC, symBinAddr: 0x100002EB4, symSize: 0x20 }
  - { offsetInCU: 0x57BC8, offset: 0x57BC8, size: 0x8, addend: 0x0, symName: __ZNSt8_Rb_treeIiiSt9_IdentityIiESt4lessIiESaIiEEC1Ev, symObjAddr: 0x12BC, symBinAddr: 0x100002E94, symSize: 0x20 }
  - { offsetInCU: 0x57C2E, offset: 0x57C2E, size: 0x8, addend: 0x0, symName: __ZNSt8_Rb_treeIiiSt9_IdentityIiESt4lessIiESaIiEE13_Rb_tree_implIS3_Lb1EED1Ev, symObjAddr: 0x1290, symBinAddr: 0x100002E68, symSize: 0x2C }
  - { offsetInCU: 0x57C5E, offset: 0x57C5E, size: 0x8, addend: 0x0, symName: __ZNSt6vectorIdSaIdEEC1Ev, symObjAddr: 0x1270, symBinAddr: 0x100002E48, symSize: 0x20 }
  - { offsetInCU: 0x57CA5, offset: 0x57CA5, size: 0x8, addend: 0x0, symName: __ZNSt12_Vector_baseIdSaIdEEC2Ev, symObjAddr: 0x1250, symBinAddr: 0x100002E28, symSize: 0x20 }
  - { offsetInCU: 0x57D00, offset: 0x57D00, size: 0x8, addend: 0x0, symName: __ZNSt12_Vector_baseIdSaIdEE12_Vector_implD1Ev, symObjAddr: 0x1224, symBinAddr: 0x100002DFC, symSize: 0x2C }
  - { offsetInCU: 0x57D4E, offset: 0x57D4E, size: 0x8, addend: 0x0, symName: __ZNSt6vectorIiSaIiEEC1Ev, symObjAddr: 0x1204, symBinAddr: 0x100002DDC, symSize: 0x20 }
  - { offsetInCU: 0x57D95, offset: 0x57D95, size: 0x8, addend: 0x0, symName: __ZNSt12_Vector_baseIiSaIiEEC2Ev, symObjAddr: 0x11E4, symBinAddr: 0x100002DBC, symSize: 0x20 }
  - { offsetInCU: 0x57DF0, offset: 0x57DF0, size: 0x8, addend: 0x0, symName: __ZNSt12_Vector_baseIiSaIiEE12_Vector_implD1Ev, symObjAddr: 0x11B8, symBinAddr: 0x100002D90, symSize: 0x2C }
  - { offsetInCU: 0x57E66, offset: 0x57E66, size: 0x8, addend: 0x0, symName: __Z15println_verboseiRKNSt7__cxx1112basic_stringIcSt11char_traitsIcESaIcEEE, symObjAddr: 0x1168, symBinAddr: 0x100002D40, symSize: 0x50 }
  - { offsetInCU: 0x57EA2, offset: 0x57EA2, size: 0x8, addend: 0x0, symName: __Z13print_verboseiRKNSt7__cxx1112basic_stringIcSt11char_traitsIcESaIcEEE, symObjAddr: 0x1124, symBinAddr: 0x100002CFC, symSize: 0x44 }
  - { offsetInCU: 0x57E8F, offset: 0x57E8F, size: 0x8, addend: 0x0, symName: __ZNKSt6chrono8durationIxSt5ratioILl1ELl1000000000EEE5countEv, symObjAddr: 0x110C, symBinAddr: 0x100002CE4, symSize: 0x18 }
  - { offsetInCU: 0x57F25, offset: 0x57F25, size: 0x8, addend: 0x0, symName: __ZNSt6chrono8durationIxSt5ratioILl1ELl1000000000EEEC1IxvEERKT_, symObjAddr: 0x10E4, symBinAddr: 0x100002CBC, symSize: 0x28 }
  - { offsetInCU: 0x57F22, offset: 0x57F22, size: 0x8, addend: 0x0, symName: __ZNSt15_Rb_tree_header8_M_resetEv, symObjAddr: 0x10A8, symBinAddr: 0x100002C80, symSize: 0x3C }
  - { offsetInCU: 0x57F7D, offset: 0x57F7D, size: 0x8, addend: 0x0, symName: __ZNSt15_Rb_tree_headerC2Ev, symObjAddr: 0x1080, symBinAddr: 0x100002C58, symSize: 0x28 }
  - { offsetInCU: 0x57F88, offset: 0x57F88, size: 0x8, addend: 0x0, symName: __ZSt16__deque_buf_sizem, symObjAddr: 0x1050, symBinAddr: 0x100002C28, symSize: 0x30 }
  - { offsetInCU: 0x57FB1, offset: 0x57FB1, size: 0x8, addend: 0x0, symName: __ZSt9__fill_a1St13_Bit_iteratorS_RKb, symObjAddr: 0xF40, symBinAddr: 0x100002B18, symSize: 0x110 }
  - { offsetInCU: 0x58021, offset: 0x58021, size: 0x8, addend: 0x0, symName: __ZSt16__fill_bvector_nPmmb, symObjAddr: 0xEE8, symBinAddr: 0x100002AC0, symSize: 0x58 }
  - { offsetInCU: 0x5806D, offset: 0x5806D, size: 0x8, addend: 0x0, symName: __ZSt14__fill_bvectorPmjjb, symObjAddr: 0xE44, symBinAddr: 0x100002A1C, symSize: 0xA4 }
  - { offsetInCU: 0x58101, offset: 0x58101, size: 0x8, addend: 0x0, symName: __ZNSt19_Bit_const_iteratorppEv, symObjAddr: 0xE24, symBinAddr: 0x1000029FC, symSize: 0x20 }
  - { offsetInCU: 0x5812B, offset: 0x5812B, size: 0x8, addend: 0x0, symName: __ZNKSt19_Bit_const_iteratordeEv, symObjAddr: 0xDB8, symBinAddr: 0x100002990, symSize: 0x6C }
  - { offsetInCU: 0x58182, offset: 0x58182, size: 0x8, addend: 0x0, symName: __ZNKSt19_Bit_const_iterator13_M_const_castEv, symObjAddr: 0xD64, symBinAddr: 0x10000293C, symSize: 0x54 }
  - { offsetInCU: 0x58201, offset: 0x58201, size: 0x8, addend: 0x0, symName: __ZNSt19_Bit_const_iteratorC1ERKSt13_Bit_iterator, symObjAddr: 0xD28, symBinAddr: 0x100002900, symSize: 0x3C }
  - { offsetInCU: 0x58256, offset: 0x58256, size: 0x8, addend: 0x0, symName: __ZNSt19_Bit_const_iteratorC1EPmj, symObjAddr: 0xCF8, symBinAddr: 0x1000028D0, symSize: 0x30 }
  - { offsetInCU: 0x58273, offset: 0x58273, size: 0x8, addend: 0x0, symName: __ZStplRKSt13_Bit_iteratorl, symObjAddr: 0xCA0, symBinAddr: 0x100002878, symSize: 0x58 }
  - { offsetInCU: 0x582C3, offset: 0x582C3, size: 0x8, addend: 0x0, symName: __ZNKSt13_Bit_iteratorixEl, symObjAddr: 0xC70, symBinAddr: 0x100002848, symSize: 0x30 }
  - { offsetInCU: 0x582FE, offset: 0x582FE, size: 0x8, addend: 0x0, symName: __ZNSt13_Bit_iteratorpLEl, symObjAddr: 0xC48, symBinAddr: 0x100002820, symSize: 0x28 }
  - { offsetInCU: 0x58339, offset: 0x58339, size: 0x8, addend: 0x0, symName: __ZNSt13_Bit_iteratormmEv, symObjAddr: 0xC28, symBinAddr: 0x100002800, symSize: 0x20 }
  - { offsetInCU: 0x58363, offset: 0x58363, size: 0x8, addend: 0x0, symName: __ZNSt13_Bit_iteratorppEv, symObjAddr: 0xC08, symBinAddr: 0x1000027E0, symSize: 0x20 }
  - { offsetInCU: 0x5838D, offset: 0x5838D, size: 0x8, addend: 0x0, symName: __ZNKSt13_Bit_iteratordeEv, symObjAddr: 0xBA0, symBinAddr: 0x100002778, symSize: 0x68 }
  - { offsetInCU: 0x58431, offset: 0x58431, size: 0x8, addend: 0x0, symName: __ZNSt13_Bit_iteratorC1EPmj, symObjAddr: 0xB70, symBinAddr: 0x100002748, symSize: 0x30 }
  - { offsetInCU: 0x58481, offset: 0x58481, size: 0x8, addend: 0x0, symName: __ZNSt13_Bit_iteratorC1Ev, symObjAddr: 0xB48, symBinAddr: 0x100002720, symSize: 0x28 }
  - { offsetInCU: 0x58494, offset: 0x58494, size: 0x8, addend: 0x0, symName: __ZStmiRKSt18_Bit_iterator_baseS1_, symObjAddr: 0xAAC, symBinAddr: 0x100002684, symSize: 0x9C }
  - { offsetInCU: 0x5852D, offset: 0x5852D, size: 0x8, addend: 0x0, symName: __ZNSt18_Bit_iterator_base7_M_incrEl, symObjAddr: 0x9D4, symBinAddr: 0x1000025AC, symSize: 0xD8 }
  - { offsetInCU: 0x585A3, offset: 0x585A3, size: 0x8, addend: 0x0, symName: __ZNSt18_Bit_iterator_base12_M_bump_downEv, symObjAddr: 0x94C, symBinAddr: 0x100002524, symSize: 0x88 }
  - { offsetInCU: 0x585F9, offset: 0x585F9, size: 0x8, addend: 0x0, symName: __ZNSt18_Bit_iterator_base10_M_bump_upEv, symObjAddr: 0x8C8, symBinAddr: 0x1000024A0, symSize: 0x84 }
  - { offsetInCU: 0x5869F, offset: 0x5869F, size: 0x8, addend: 0x0, symName: __ZNSt18_Bit_iterator_baseC2EPmj, symObjAddr: 0x894, symBinAddr: 0x10000246C, symSize: 0x34 }
  - { offsetInCU: 0x586DE, offset: 0x586DE, size: 0x8, addend: 0x0, symName: __ZNSt14_Bit_referenceaSERKS_, symObjAddr: 0x868, symBinAddr: 0x100002440, symSize: 0x2C }
  - { offsetInCU: 0x58718, offset: 0x58718, size: 0x8, addend: 0x0, symName: __ZNSt14_Bit_referenceaSEb, symObjAddr: 0x7EC, symBinAddr: 0x1000023C4, symSize: 0x7C }
  - { offsetInCU: 0x58752, offset: 0x58752, size: 0x8, addend: 0x0, symName: __ZNKSt14_Bit_referencecvbEv, symObjAddr: 0x7B8, symBinAddr: 0x100002390, symSize: 0x34 }
  - { offsetInCU: 0x587C8, offset: 0x587C8, size: 0x8, addend: 0x0, symName: __ZNSt14_Bit_referenceC1EPmm, symObjAddr: 0x784, symBinAddr: 0x10000235C, symSize: 0x34 }
  - { offsetInCU: 0x587E4, offset: 0x587E4, size: 0x8, addend: 0x0, symName: __ZSt3minImERKT_S2_S2_, symObjAddr: 0x74C, symBinAddr: 0x100002324, symSize: 0x38 }
  - { offsetInCU: 0x58826, offset: 0x58826, size: 0x8, addend: 0x0, symName: __ZNSt7__cxx119to_stringEd, symObjAddr: 0x6F4, symBinAddr: 0x1000022CC, symSize: 0x58 }
  - { offsetInCU: 0x58861, offset: 0x58861, size: 0x8, addend: 0x0, symName: __ZNSt8__detail14__to_chars_lenIyEEjT_i, symObjAddr: 0x618, symBinAddr: 0x1000021F0, symSize: 0xDC }
  - { offsetInCU: 0x588E3, offset: 0x588E3, size: 0x8, addend: 0x0, symName: __ZNSt7__cxx119to_stringEx, symObjAddr: 0x554, symBinAddr: 0x10000212C, symSize: 0xC4 }
  - { offsetInCU: 0x589A4, offset: 0x589A4, size: 0x8, addend: 0x0, symName: __ZZNSt7__cxx119to_stringExENKUlPcmE_clES0_m, symObjAddr: 0x4F8, symBinAddr: 0x1000020D0, symSize: 0x5C }
  - { offsetInCU: 0x58A27, offset: 0x58A27, size: 0x8, addend: 0x0, symName: __ZNSt7__cxx119to_stringEm, symObjAddr: 0x48C, symBinAddr: 0x100002064, symSize: 0x6C }
  - { offsetInCU: 0x58AD4, offset: 0x58AD4, size: 0x8, addend: 0x0, symName: __ZZNSt7__cxx119to_stringEmENKUlPcmE_clES0_m, symObjAddr: 0x450, symBinAddr: 0x100002028, symSize: 0x3C }
  - { offsetInCU: 0x58B0D, offset: 0x58B0D, size: 0x8, addend: 0x0, symName: __ZNSt8__detail14__to_chars_lenImEEjT_i, symObjAddr: 0x374, symBinAddr: 0x100001F4C, symSize: 0xDC }
  - { offsetInCU: 0x58B8F, offset: 0x58B8F, size: 0x8, addend: 0x0, symName: __ZNSt8__detail14__to_chars_lenIjEEjT_i, symObjAddr: 0x29C, symBinAddr: 0x100001E74, symSize: 0xD8 }
  - { offsetInCU: 0x58C11, offset: 0x58C11, size: 0x8, addend: 0x0, symName: __ZNSt7__cxx119to_stringEi, symObjAddr: 0x1F0, symBinAddr: 0x100001DC8, symSize: 0xAC }
  - { offsetInCU: 0x58CD2, offset: 0x58CD2, size: 0x8, addend: 0x0, symName: __ZZNSt7__cxx119to_stringEiENKUlPcmE_clES0_m, symObjAddr: 0x194, symBinAddr: 0x100001D6C, symSize: 0x5C }
  - { offsetInCU: 0x58D55, offset: 0x58D55, size: 0x8, addend: 0x0, symName: __ZNSt11char_traitsIcE4copyEPcPKcm, symObjAddr: 0x140, symBinAddr: 0x100001D18, symSize: 0x54 }
  - { offsetInCU: 0x58DA1, offset: 0x58DA1, size: 0x8, addend: 0x0, symName: __ZNSt11char_traitsIcE4moveEPcPKcm, symObjAddr: 0xFC, symBinAddr: 0x100001CD4, symSize: 0x44 }
  - { offsetInCU: 0x58DED, offset: 0x58DED, size: 0x8, addend: 0x0, symName: __ZNSt11char_traitsIcE6lengthEPKc, symObjAddr: 0xC0, symBinAddr: 0x100001C98, symSize: 0x3C }
  - { offsetInCU: 0x58E31, offset: 0x58E31, size: 0x8, addend: 0x0, symName: __ZNSt11char_traitsIcE6assignERcRKc, symObjAddr: 0x98, symBinAddr: 0x100001C70, symSize: 0x28 }
  - { offsetInCU: 0x58E79, offset: 0x58E79, size: 0x8, addend: 0x0, symName: __ZdlPvS_, symObjAddr: 0x80, symBinAddr: 0x100001C58, symSize: 0x18 }
  - { offsetInCU: 0x58EAE, offset: 0x58EAE, size: 0x8, addend: 0x0, symName: __ZnwmPv, symObjAddr: 0x68, symBinAddr: 0x100001C40, symSize: 0x18 }
  - { offsetInCU: 0x58EDB, offset: 0x58EDB, size: 0x8, addend: 0x0, symName: __ZSt17__size_to_integerm, symObjAddr: 0x54, symBinAddr: 0x100001C2C, symSize: 0x14 }
  - { offsetInCU: 0x58F05, offset: 0x58F05, size: 0x8, addend: 0x0, symName: __ZN9__gnu_cxx5__ops15__val_comp_iterENS0_15_Iter_less_iterE, symObjAddr: 0x3C, symBinAddr: 0x100001C14, symSize: 0x18 }
  - { offsetInCU: 0x58F83, offset: 0x58F83, size: 0x8, addend: 0x0, symName: __ZN9__gnu_cxx5__ops14_Iter_less_valC1ENS0_15_Iter_less_iterE, symObjAddr: 0x24, symBinAddr: 0x100001BFC, symSize: 0x18 }
  - { offsetInCU: 0x58F76, offset: 0x58F76, size: 0x8, addend: 0x0, symName: __ZN9__gnu_cxx5__ops16__iter_less_iterEv, symObjAddr: 0x1C, symBinAddr: 0x100001BF4, symSize: 0x8 }
  - { offsetInCU: 0x58F8D, offset: 0x58F8D, size: 0x8, addend: 0x0, symName: __ZSt3absd, symObjAddr: 0x0, symBinAddr: 0x100001BD8, symSize: 0x1C }
...
